Archive member included because of file (symbol)

/usr/lib/libc_nonshared.a(elf-init.oS)
                              /usr/lib/crt1.o (__libc_csu_fini)

Allocating common symbols
Common symbol       size              file

loaders             0x80              src/SOIL/projects/makefile/obj/stb_image_aug.o

Discarded input sections

 .note.GNU-stack
                0x0000000000000000        0x0 /usr/lib/crt1.o
 .gnu_debuglink
                0x0000000000000000        0xc /usr/lib/crt1.o
 .note.GNU-stack
                0x0000000000000000        0x0 /usr/lib/crti.o
 .gnu_debuglink
                0x0000000000000000        0xc /usr/lib/crti.o
 .note.GNU-stack
                0x0000000000000000        0x0 /usr/local/lib/gcc/i686-pc-linux-gnu/4.5.0/crtbegin.o
 .note.GNU-stack
                0x0000000000000000        0x0 ./objs/argss.o
 .note.GNU-stack
                0x0000000000000000        0x0 ./objs/argss_audio.o
 .note.GNU-stack
                0x0000000000000000        0x0 ./objs/argss_bitmap.o
 .note.GNU-stack
                0x0000000000000000        0x0 ./objs/argss_color.o
 .note.GNU-stack
                0x0000000000000000        0x0 ./objs/argss_error.o
 .note.GNU-stack
                0x0000000000000000        0x0 ./objs/argss_font.o
 .note.GNU-stack
                0x0000000000000000        0x0 ./objs/argss_graphics.o
 .note.GNU-stack
                0x0000000000000000        0x0 ./objs/argss_input.o
 .note.GNU-stack
                0x0000000000000000        0x0 ./objs/argss_keys.o
 .note.GNU-stack
                0x0000000000000000        0x0 ./objs/argss_output.o
 .note.GNU-stack
                0x0000000000000000        0x0 ./objs/argss_plane.o
 .note.GNU-stack
                0x0000000000000000        0x0 ./objs/argss_rect.o
 .note.GNU-stack
                0x0000000000000000        0x0 ./objs/argss_rpg.o
 .note.GNU-stack
                0x0000000000000000        0x0 ./objs/argss_rpg_cache.o
 .note.GNU-stack
                0x0000000000000000        0x0 ./objs/argss_rpg_sprite.o
 .note.GNU-stack
                0x0000000000000000        0x0 ./objs/argss_rpg_weather.o
 .group         0x0000000000000000        0x8 ./objs/argss_ruby.o
 .note.GNU-stack
                0x0000000000000000        0x0 ./objs/argss_ruby.o
 .note.GNU-stack
                0x0000000000000000        0x0 ./objs/argss_sprite.o
 .note.GNU-stack
                0x0000000000000000        0x0 ./objs/argss_table.o
 .note.GNU-stack
                0x0000000000000000        0x0 ./objs/argss_tilemap_xp.o
 .note.GNU-stack
                0x0000000000000000        0x0 ./objs/argss_tilemapautotiles_xp.o
 .note.GNU-stack
                0x0000000000000000        0x0 ./objs/argss_tone.o
 .note.GNU-stack
                0x0000000000000000        0x0 ./objs/argss_viewport.o
 .note.GNU-stack
                0x0000000000000000        0x0 ./objs/argss_window_xp.o
 .group         0x0000000000000000        0x8 ./objs/audio.o
 .group         0x0000000000000000        0x8 ./objs/audio.o
 _ZNSt8_Rb_treeIiSt4pairIKiP9Mix_ChunkESt10_Select1stIS4_ESt4lessIiESaIS4_EE13_Rb_tree_implIS8_Lb0EEC5Ev
                0x0000000000000000        0x8 ./objs/audio.o
 .group         0x0000000000000000        0x8 ./objs/audio.o
 _ZNSt8_Rb_treeIiSt4pairIKiP9Mix_ChunkESt10_Select1stIS4_ESt4lessIiESaIS4_EED5Ev
                0x0000000000000000        0x8 ./objs/audio.o
 _ZNSt3mapIiP9Mix_ChunkSt4lessIiESaISt4pairIKiS1_EEED5Ev
                0x0000000000000000        0x8 ./objs/audio.o
 .group         0x0000000000000000        0x8 ./objs/audio.o
 .group         0x0000000000000000        0x8 ./objs/audio.o
 .group         0x0000000000000000        0x8 ./objs/audio.o
 .group         0x0000000000000000        0x8 ./objs/audio.o
 .group         0x0000000000000000        0x8 ./objs/audio.o
 .group         0x0000000000000000        0x8 ./objs/audio.o
 .group         0x0000000000000000        0x8 ./objs/audio.o
 .text._ZSteqIcSt11char_traitsIcESaIcEEbRKSbIT_T0_T1_EPKS3_
                0x0000000000000000       0x3c ./objs/audio.o
 .note.GNU-stack
                0x0000000000000000        0x0 ./objs/audio.o
 _ZNSt6vectorIjSaIjEED5Ev
                0x0000000000000000        0x8 ./objs/bitmap.o
 .group         0x0000000000000000        0x8 ./objs/bitmap.o
 .group         0x0000000000000000        0x8 ./objs/bitmap.o
 .group         0x0000000000000000        0x8 ./objs/bitmap.o
 .group         0x0000000000000000        0x8 ./objs/bitmap.o
 .group         0x0000000000000000        0x8 ./objs/bitmap.o
 _ZNSt8_Rb_treeImSt4pairIKmP6BitmapESt10_Select1stIS4_ESt4lessImESaIS4_EE13_Rb_tree_implIS8_Lb0EEC5Ev
                0x0000000000000000        0x8 ./objs/bitmap.o
 .group         0x0000000000000000        0x8 ./objs/bitmap.o
 _ZNSt8_Rb_treeImSt4pairIKmP6BitmapESt10_Select1stIS4_ESt4lessImESaIS4_EED5Ev
                0x0000000000000000        0x8 ./objs/bitmap.o
 _ZNSt3mapImP6BitmapSt4lessImESaISt4pairIKmS1_EEED5Ev
                0x0000000000000000        0x8 ./objs/bitmap.o
 .group         0x0000000000000000        0x8 ./objs/bitmap.o
 .group         0x0000000000000000        0x8 ./objs/bitmap.o
 .group         0x0000000000000000        0x8 ./objs/bitmap.o
 .group         0x0000000000000000        0x8 ./objs/bitmap.o
 .group         0x0000000000000000        0x8 ./objs/bitmap.o
 .group         0x0000000000000000        0x8 ./objs/bitmap.o
 .group         0x0000000000000000        0x8 ./objs/bitmap.o
 .group         0x0000000000000000        0x8 ./objs/bitmap.o
 .group         0x0000000000000000        0x8 ./objs/bitmap.o
 .group         0x0000000000000000        0x8 ./objs/bitmap.o
 .group         0x0000000000000000        0x8 ./objs/bitmap.o
 .group         0x0000000000000000        0x8 ./objs/bitmap.o
 .text._ZSteqIcSt11char_traitsIcESaIcEEbRKSbIT_T0_T1_EPKS3_
                0x0000000000000000       0x3c ./objs/bitmap.o
 .note.GNU-stack
                0x0000000000000000        0x0 ./objs/bitmap.o
 .note.GNU-stack
                0x0000000000000000        0x0 ./objs/buffer.o
 .note.GNU-stack
                0x0000000000000000        0x0 ./objs/color.o
 .note.GNU-stack
                0x0000000000000000        0x0 ./objs/console_qt.o
 .group         0x0000000000000000        0x8 ./objs/filefinder_qt.o
 .group         0x0000000000000000        0x8 ./objs/filefinder_qt.o
 .text._ZSteqIcSt11char_traitsIcESaIcEEbRKSbIT_T0_T1_EPKS3_
                0x0000000000000000       0x3c ./objs/filefinder_qt.o
 .note.GNU-stack
                0x0000000000000000        0x0 ./objs/filefinder_qt.o
 .group         0x0000000000000000        0x8 ./objs/graphics.o
 _ZN7QStringC5EPKc
                0x0000000000000000        0x8 ./objs/graphics.o
 _ZN7QStringD5Ev
                0x0000000000000000        0x8 ./objs/graphics.o
 .group         0x0000000000000000        0x8 ./objs/graphics.o
 .group         0x0000000000000000        0x8 ./objs/graphics.o
 .group         0x0000000000000000        0x8 ./objs/graphics.o
 .group         0x0000000000000000        0x8 ./objs/graphics.o
 _ZNSt8_Rb_treeImSt4pairIKmP8DrawableESt10_Select1stIS4_ESt4lessImESaIS4_EE13_Rb_tree_implIS8_Lb0EEC5Ev
                0x0000000000000000        0x8 ./objs/graphics.o
 .group         0x0000000000000000        0x8 ./objs/graphics.o
 _ZNSt8_Rb_treeImSt4pairIKmP8DrawableESt10_Select1stIS4_ESt4lessImESaIS4_EED5Ev
                0x0000000000000000        0x8 ./objs/graphics.o
 _ZNSt3mapImP8DrawableSt4lessImESaISt4pairIKmS1_EEED5Ev
                0x0000000000000000        0x8 ./objs/graphics.o
 .group         0x0000000000000000        0x8 ./objs/graphics.o
 .group         0x0000000000000000        0x8 ./objs/graphics.o
 _ZNSt4listI4ZObjSaIS0_EED5Ev
                0x0000000000000000        0x8 ./objs/graphics.o
 .group         0x0000000000000000        0x8 ./objs/graphics.o
 .group         0x0000000000000000        0x8 ./objs/graphics.o
 .group         0x0000000000000000        0x8 ./objs/graphics.o
 .group         0x0000000000000000        0x8 ./objs/graphics.o
 .group         0x0000000000000000        0x8 ./objs/graphics.o
 .group         0x0000000000000000        0x8 ./objs/graphics.o
 .group         0x0000000000000000        0x8 ./objs/graphics.o
 .note.GNU-stack
                0x0000000000000000        0x0 ./objs/graphics.o
 .note.GNU-stack
                0x0000000000000000        0x0 ./objs/hslrgb.o
 _ZNSt6vectorIiSaIiEED5Ev
                0x0000000000000000        0x8 ./objs/input.o
 _ZNSt6vectorIbSaIbEED5Ev
                0x0000000000000000        0x8 ./objs/input.o
 .group         0x0000000000000000        0x8 ./objs/input.o
 .group         0x0000000000000000        0x8 ./objs/input.o
 .group         0x0000000000000000        0x8 ./objs/input.o
 .group         0x0000000000000000        0x8 ./objs/input.o
 .group         0x0000000000000000        0x8 ./objs/input.o
 .group         0x0000000000000000        0x8 ./objs/input.o
 .group         0x0000000000000000        0x8 ./objs/input.o
 .group         0x0000000000000000        0x8 ./objs/input.o
 .group         0x0000000000000000        0x8 ./objs/input.o
 .group         0x0000000000000000        0x8 ./objs/input.o
 .group         0x0000000000000000        0x8 ./objs/input.o
 .group         0x0000000000000000        0x8 ./objs/input.o
 .group         0x0000000000000000        0x8 ./objs/input.o
 .group         0x0000000000000000        0x8 ./objs/input.o
 .group         0x0000000000000000        0x8 ./objs/input.o
 .group         0x0000000000000000        0x8 ./objs/input.o
 .group         0x0000000000000000        0x8 ./objs/input.o
 .group         0x0000000000000000        0x8 ./objs/input.o
 .group         0x0000000000000000        0x8 ./objs/input.o
 .group         0x0000000000000000        0x8 ./objs/input.o
 _ZNSt6vectorIS_IiSaIiEESaIS1_EED5Ev
                0x0000000000000000        0x8 ./objs/input.o
 .group         0x0000000000000000        0x8 ./objs/input.o
 .group         0x0000000000000000        0x8 ./objs/input.o
 .group         0x0000000000000000        0x8 ./objs/input.o
 .group         0x0000000000000000        0x8 ./objs/input.o
 .group         0x0000000000000000        0x8 ./objs/input.o
 _ZNSt6vectorIbSaIbEEC5ERKS1_
                0x0000000000000000        0x8 ./objs/input.o
 .group         0x0000000000000000        0x8 ./objs/input.o
 .group         0x0000000000000000        0x8 ./objs/input.o
 .group         0x0000000000000000        0x8 ./objs/input.o
 .group         0x0000000000000000        0x8 ./objs/input.o
 .group         0x0000000000000000        0x8 ./objs/input.o
 .group         0x0000000000000000        0x8 ./objs/input.o
 .group         0x0000000000000000        0x8 ./objs/input.o
 .group         0x0000000000000000        0x8 ./objs/input.o
 .group         0x0000000000000000        0x8 ./objs/input.o
 _ZNSt6vectorIiSaIiEEC5ERKS1_
                0x0000000000000000        0x8 ./objs/input.o
 .group         0x0000000000000000        0x8 ./objs/input.o
 .group         0x0000000000000000        0x8 ./objs/input.o
 .group         0x0000000000000000        0x8 ./objs/input.o
 .group         0x0000000000000000        0x8 ./objs/input.o
 .group         0x0000000000000000        0x8 ./objs/input.o
 .group         0x0000000000000000        0x8 ./objs/input.o
 .group         0x0000000000000000        0x8 ./objs/input.o
 .group         0x0000000000000000        0x8 ./objs/input.o
 .group         0x0000000000000000        0x8 ./objs/input.o
 .group         0x0000000000000000        0x8 ./objs/input.o
 .group         0x0000000000000000        0x8 ./objs/input.o
 .group         0x0000000000000000        0x8 ./objs/input.o
 .group         0x0000000000000000        0x8 ./objs/input.o
 .group         0x0000000000000000        0x8 ./objs/input.o
 .group         0x0000000000000000        0x8 ./objs/input.o
 .group         0x0000000000000000        0x8 ./objs/input.o
 .group         0x0000000000000000        0x8 ./objs/input.o
 .note.GNU-stack
                0x0000000000000000        0x0 ./objs/input.o
 _ZNSt6vectorIiSaIiEED5Ev
                0x0000000000000000        0x8 ./objs/inputbuttons_qt.o
 _ZNSt8_Rb_treeIiSt4pairIKiSt6vectorIiSaIiEEESt10_Select1stIS5_ESt4lessIiESaIS5_EE13_Rb_tree_implIS9_Lb0EEC5Ev
                0x0000000000000000        0x8 ./objs/inputbuttons_qt.o
 .group         0x0000000000000000        0x8 ./objs/inputbuttons_qt.o
 _ZNSt8_Rb_treeIiSt4pairIKiSt6vectorIiSaIiEEESt10_Select1stIS5_ESt4lessIiESaIS5_EED5Ev
                0x0000000000000000        0x8 ./objs/inputbuttons_qt.o
 _ZNSt3mapIiSt6vectorIiSaIiEESt4lessIiESaISt4pairIKiS2_EEED5Ev
                0x0000000000000000        0x8 ./objs/inputbuttons_qt.o
 .group         0x0000000000000000        0x8 ./objs/inputbuttons_qt.o
 .group         0x0000000000000000        0x8 ./objs/inputbuttons_qt.o
 .group         0x0000000000000000        0x8 ./objs/inputbuttons_qt.o
 .group         0x0000000000000000        0x8 ./objs/inputbuttons_qt.o
 .group         0x0000000000000000        0x8 ./objs/inputbuttons_qt.o
 .group         0x0000000000000000        0x8 ./objs/inputbuttons_qt.o
 _ZNSt6vectorIiSaIiEEC5ERKS1_
                0x0000000000000000        0x8 ./objs/inputbuttons_qt.o
 .group         0x0000000000000000        0x8 ./objs/inputbuttons_qt.o
 .group         0x0000000000000000        0x8 ./objs/inputbuttons_qt.o
 .group         0x0000000000000000        0x8 ./objs/inputbuttons_qt.o
 .group         0x0000000000000000        0x8 ./objs/inputbuttons_qt.o
 .group         0x0000000000000000        0x8 ./objs/inputbuttons_qt.o
 .text._ZNSt6vectorIiSaIiEED2Ev
                0x0000000000000000       0x47 ./objs/inputbuttons_qt.o
 .text._ZNSt8_Rb_treeIiSt4pairIKiSt6vectorIiSaIiEEESt10_Select1stIS5_ESt4lessIiESaIS5_EE11lower_boundERS1_
                0x0000000000000000       0x5f ./objs/inputbuttons_qt.o
 .text._ZNKSt6vectorIiSaIiEE12_M_check_lenEjPKc
                0x0000000000000000       0x6a ./objs/inputbuttons_qt.o
 .text._ZNSt20__copy_move_backwardILb0ELb1ESt26random_access_iterator_tagE13__copy_move_bIiEEPT_PKS3_S6_S4_
                0x0000000000000000       0x5e ./objs/inputbuttons_qt.o
 .text._ZNSt11__copy_moveILb0ELb1ESt26random_access_iterator_tagE8__copy_mIiEEPT_PKS3_S6_S4_
                0x0000000000000000       0x57 ./objs/inputbuttons_qt.o
 .text._ZNSt6vectorIiSaIiEE13_M_insert_auxEN9__gnu_cxx17__normal_iteratorIPiS1_EERKi
                0x0000000000000000       0xe2 ./objs/inputbuttons_qt.o
 .text._ZNSt6vectorIiSaIiEE9push_backERKi
                0x0000000000000000       0x55 ./objs/inputbuttons_qt.o
 .text._ZNSt6vectorIiSaIiEEC2ERKS1_
                0x0000000000000000       0x79 ./objs/inputbuttons_qt.o
 .text._ZNSt8_Rb_treeIiSt4pairIKiSt6vectorIiSaIiEEESt10_Select1stIS5_ESt4lessIiESaIS5_EE10_M_insert_EPKSt18_Rb_tree_node_baseSE_RKS5_
                0x0000000000000000       0xd3 ./objs/inputbuttons_qt.o
 .text._ZNSt8_Rb_treeIiSt4pairIKiSt6vectorIiSaIiEEESt10_Select1stIS5_ESt4lessIiESaIS5_EE16_M_insert_uniqueERKS5_
                0x0000000000000000       0xb4 ./objs/inputbuttons_qt.o
 .text._ZNSt8_Rb_treeIiSt4pairIKiSt6vectorIiSaIiEEESt10_Select1stIS5_ESt4lessIiESaIS5_EE17_M_insert_unique_ESt23_Rb_tree_const_iteratorIS5_ERKS5_
                0x0000000000000000      0x102 ./objs/inputbuttons_qt.o
 .text._ZNSt3mapIiSt6vectorIiSaIiEESt4lessIiESaISt4pairIKiS2_EEE6insertESt17_Rb_tree_iteratorIS7_ERKS7_
                0x0000000000000000       0x43 ./objs/inputbuttons_qt.o
 .text._ZNSt3mapIiSt6vectorIiSaIiEESt4lessIiESaISt4pairIKiS2_EEEixERS6_
                0x0000000000000000       0xd7 ./objs/inputbuttons_qt.o
 .note.GNU-stack
                0x0000000000000000        0x0 ./objs/inputbuttons_qt.o
 .note.GNU-stack
                0x0000000000000000        0x0 ./objs/inputkeys.o
 .group         0x0000000000000000        0x8 ./objs/main.o
 _ZN10MainThreadD5Ev
                0x0000000000000000        0xc ./objs/main.o
 .group         0x0000000000000000        0x8 ./objs/main.o
 .group         0x0000000000000000        0x8 ./objs/main.o
 .group         0x0000000000000000        0x8 ./objs/main.o
 .note.GNU-stack
                0x0000000000000000        0x0 ./objs/main.o
 .group         0x0000000000000000        0x8 ./objs/msgbox_qt.o
 _ZN7QStringC5EPKc
                0x0000000000000000        0x8 ./objs/msgbox_qt.o
 _ZN7QStringD5Ev
                0x0000000000000000        0x8 ./objs/msgbox_qt.o
 .text._ZN15QBasicAtomicInt5derefEv
                0x0000000000000000       0x38 ./objs/msgbox_qt.o
 .text._ZN7QStringC2EPKc
                0x0000000000000000       0x3f ./objs/msgbox_qt.o
 .text._ZN7QStringD2Ev
                0x0000000000000000       0x58 ./objs/msgbox_qt.o
 .note.GNU-stack
                0x0000000000000000        0x0 ./objs/msgbox_qt.o
 .note.GNU-stack
                0x0000000000000000        0x0 ./objs/output.o
 _ZN8DrawableD5Ev
                0x0000000000000000        0xc ./objs/plane.o
 .group         0x0000000000000000        0x8 ./objs/plane.o
 .group         0x0000000000000000        0x8 ./objs/plane.o
 .group         0x0000000000000000        0x8 ./objs/plane.o
 .group         0x0000000000000000        0x8 ./objs/plane.o
 .group         0x0000000000000000        0x8 ./objs/plane.o
 .group         0x0000000000000000        0x8 ./objs/plane.o
 .group         0x0000000000000000        0x8 ./objs/plane.o
 .group         0x0000000000000000        0x8 ./objs/plane.o
 .group         0x0000000000000000        0x8 ./objs/plane.o
 .group         0x0000000000000000        0x8 ./objs/plane.o
 .group         0x0000000000000000        0x8 ./objs/plane.o
 .group         0x0000000000000000        0x8 ./objs/plane.o
 .group         0x0000000000000000        0x8 ./objs/plane.o
 .group         0x0000000000000000        0x8 ./objs/plane.o
 .group         0x0000000000000000        0x8 ./objs/plane.o
 .group         0x0000000000000000        0x8 ./objs/plane.o
 .text._ZNSt8_Rb_treeImSt4pairIKmP8DrawableESt10_Select1stIS4_ESt4lessImESaIS4_EE11lower_boundERS1_
                0x0000000000000000       0x5f ./objs/plane.o
 .text._ZNSt8_Rb_treeImSt4pairIKmP8DrawableESt10_Select1stIS4_ESt4lessImESaIS4_EE10_M_insert_EPKSt18_Rb_tree_node_baseSD_RKS4_
                0x0000000000000000       0xac ./objs/plane.o
 .text._ZNSt8_Rb_treeImSt4pairIKmP8DrawableESt10_Select1stIS4_ESt4lessImESaIS4_EE16_M_insert_uniqueERKS4_
                0x0000000000000000       0xb4 ./objs/plane.o
 .text._ZNSt8_Rb_treeImSt4pairIKmP8DrawableESt10_Select1stIS4_ESt4lessImESaIS4_EE17_M_insert_unique_ESt23_Rb_tree_const_iteratorIS4_ERKS4_
                0x0000000000000000      0x102 ./objs/plane.o
 .text._ZNSt3mapImP8DrawableSt4lessImESaISt4pairIKmS1_EEE6insertESt17_Rb_tree_iteratorIS6_ERKS6_
                0x0000000000000000       0x43 ./objs/plane.o
 .text._ZNSt3mapImP8DrawableSt4lessImESaISt4pairIKmS1_EEEixERS5_
                0x0000000000000000       0x79 ./objs/plane.o
 .note.GNU-stack
                0x0000000000000000        0x0 ./objs/plane.o
 .group         0x0000000000000000        0x8 ./objs/player.o
 .note.GNU-stack
                0x0000000000000000        0x0 ./objs/player.o
 .note.GNU-stack
                0x0000000000000000        0x0 ./objs/rect.o
 .note.GNU-stack
                0x0000000000000000        0x0 ./objs/socket.o
 _ZN8DrawableD5Ev
                0x0000000000000000        0xc ./objs/sprite.o
 .group         0x0000000000000000        0x8 ./objs/sprite.o
 .group         0x0000000000000000        0x8 ./objs/sprite.o
 .group         0x0000000000000000        0x8 ./objs/sprite.o
 .group         0x0000000000000000        0x8 ./objs/sprite.o
 .group         0x0000000000000000        0x8 ./objs/sprite.o
 .group         0x0000000000000000        0x8 ./objs/sprite.o
 .group         0x0000000000000000        0x8 ./objs/sprite.o
 .group         0x0000000000000000        0x8 ./objs/sprite.o
 .group         0x0000000000000000        0x8 ./objs/sprite.o
 .group         0x0000000000000000        0x8 ./objs/sprite.o
 .group         0x0000000000000000        0x8 ./objs/sprite.o
 .group         0x0000000000000000        0x8 ./objs/sprite.o
 .group         0x0000000000000000        0x8 ./objs/sprite.o
 .group         0x0000000000000000        0x8 ./objs/sprite.o
 .group         0x0000000000000000        0x8 ./objs/sprite.o
 .group         0x0000000000000000        0x8 ./objs/sprite.o
 .text._ZN8DrawableD2Ev
                0x0000000000000000       0x32 ./objs/sprite.o
 .text._ZN8DrawableD0Ev
                0x0000000000000000       0x3a ./objs/sprite.o
 .text._ZNKSt8_Rb_treeImSt4pairIKmP8DrawableESt10_Select1stIS4_ESt4lessImESaIS4_EE4findERS1_
                0x0000000000000000       0x72 ./objs/sprite.o
 .text._ZNKSt3mapImP8DrawableSt4lessImESaISt4pairIKmS1_EEE5countERS5_
                0x0000000000000000       0x4b ./objs/sprite.o
 .text._ZNSt8_Rb_treeImSt4pairIKmP8DrawableESt10_Select1stIS4_ESt4lessImESaIS4_EE4findERS1_
                0x0000000000000000       0x72 ./objs/sprite.o
 .text._ZNSt8_Rb_treeImSt4pairIKmP8DrawableESt10_Select1stIS4_ESt4lessImESaIS4_EE5eraseESt17_Rb_tree_iteratorIS4_E
                0x0000000000000000       0x4a ./objs/sprite.o
 .text._ZNSt8_Rb_treeImSt4pairIKmP8DrawableESt10_Select1stIS4_ESt4lessImESaIS4_EE11lower_boundERS1_
                0x0000000000000000       0x5f ./objs/sprite.o
 .text._ZNSt8_Rb_treeImSt4pairIKmP8DrawableESt10_Select1stIS4_ESt4lessImESaIS4_EE10_M_insert_EPKSt18_Rb_tree_node_baseSD_RKS4_
                0x0000000000000000       0xac ./objs/sprite.o
 .text._ZNSt8_Rb_treeImSt4pairIKmP8DrawableESt10_Select1stIS4_ESt4lessImESaIS4_EE16_M_insert_uniqueERKS4_
                0x0000000000000000       0xb4 ./objs/sprite.o
 .text._ZNSt8_Rb_treeImSt4pairIKmP8DrawableESt10_Select1stIS4_ESt4lessImESaIS4_EE17_M_insert_unique_ESt23_Rb_tree_const_iteratorIS4_ERKS4_
                0x0000000000000000      0x102 ./objs/sprite.o
 .text._ZNSt3mapImP8DrawableSt4lessImESaISt4pairIKmS1_EEE6insertESt17_Rb_tree_iteratorIS6_ERKS6_
                0x0000000000000000       0x43 ./objs/sprite.o
 .text._ZNSt3mapImP8DrawableSt4lessImESaISt4pairIKmS1_EEEixERS5_
                0x0000000000000000       0x79 ./objs/sprite.o
 .rodata._ZTV8Drawable
                0x0000000000000000       0x18 ./objs/sprite.o
 .rodata._ZTI8Drawable
                0x0000000000000000        0x8 ./objs/sprite.o
 .rodata._ZTS8Drawable
                0x0000000000000000        0xa ./objs/sprite.o
 .note.GNU-stack
                0x0000000000000000        0x0 ./objs/sprite.o
 .group         0x0000000000000000        0x8 ./objs/system.o
 .group         0x0000000000000000        0x8 ./objs/system.o
 .group         0x0000000000000000        0x8 ./objs/system.o
 .group         0x0000000000000000        0x8 ./objs/system.o
 .group         0x0000000000000000        0x8 ./objs/system.o
 .group         0x0000000000000000        0x8 ./objs/system.o
 .group         0x0000000000000000        0x8 ./objs/system.o
 _ZNSt8_Rb_treeIN15CSimpleIniTemplIc16SI_GenericNoCaseIcE11SI_ConvertAIcEE5EntryESt4pairIKS6_St8multimapIS6_PKcNS6_8KeyOrderESaIS7_IS8_SB_EEEESt10_Select1stISG_ESC_SaISG_EE13_Rb_tree_implISC_Lb0EEC5Ev
                0x0000000000000000        0x8 ./objs/system.o
 .group         0x0000000000000000        0x8 ./objs/system.o
 .group         0x0000000000000000        0x8 ./objs/system.o
 .group         0x0000000000000000        0x8 ./objs/system.o
 .group         0x0000000000000000        0x8 ./objs/system.o
 .group         0x0000000000000000        0x8 ./objs/system.o
 .group         0x0000000000000000        0x8 ./objs/system.o
 .group         0x0000000000000000        0x8 ./objs/system.o
 _ZNSt8_Rb_treeIN15CSimpleIniTemplIc16SI_GenericNoCaseIcE11SI_ConvertAIcEE5EntryESt4pairIKS6_PKcESt10_Select1stISB_ENS6_8KeyOrderESaISB_EED5Ev
                0x0000000000000000        0x8 ./objs/system.o
 .group         0x0000000000000000        0x8 ./objs/system.o
 _ZNSt8_Rb_treeIN15CSimpleIniTemplIc16SI_GenericNoCaseIcE11SI_ConvertAIcEE5EntryESt4pairIKS6_St8multimapIS6_PKcNS6_8KeyOrderESaIS7_IS8_SB_EEEESt10_Select1stISG_ESC_SaISG_EED5Ev
                0x0000000000000000        0x8 ./objs/system.o
 .group         0x0000000000000000        0x8 ./objs/system.o
 .group         0x0000000000000000        0x8 ./objs/system.o
 .group         0x0000000000000000        0x8 ./objs/system.o
 .group         0x0000000000000000        0x8 ./objs/system.o
 _ZN15CSimpleIniTemplIc16SI_GenericNoCaseIcE11SI_ConvertAIcEED5Ev
                0x0000000000000000        0x8 ./objs/system.o
 .group         0x0000000000000000        0x8 ./objs/system.o
 _ZNSt8_Rb_treeIN15CSimpleIniTemplIc16SI_GenericNoCaseIcE11SI_ConvertAIcEE5EntryESt4pairIKS6_PKcESt10_Select1stISB_ENS6_8KeyOrderESaISB_EE13_Rb_tree_implISE_Lb0EEC5Ev
                0x0000000000000000        0x8 ./objs/system.o
 .group         0x0000000000000000        0x8 ./objs/system.o
 .group         0x0000000000000000        0x8 ./objs/system.o
 .group         0x0000000000000000        0x8 ./objs/system.o
 _ZNSt8_Rb_treeIN15CSimpleIniTemplIc16SI_GenericNoCaseIcE11SI_ConvertAIcEE5EntryESt4pairIKS6_PKcESt10_Select1stISB_ENS6_8KeyOrderESaISB_EEC5ERKSG_
                0x0000000000000000        0x8 ./objs/system.o
 .group         0x0000000000000000        0x8 ./objs/system.o
 .group         0x0000000000000000        0x8 ./objs/system.o
 .group         0x0000000000000000        0x8 ./objs/system.o
 .group         0x0000000000000000        0x8 ./objs/system.o
 .group         0x0000000000000000        0x8 ./objs/system.o
 .group         0x0000000000000000        0x8 ./objs/system.o
 .group         0x0000000000000000        0x8 ./objs/system.o
 .group         0x0000000000000000        0x8 ./objs/system.o
 .group         0x0000000000000000        0x8 ./objs/system.o
 .group         0x0000000000000000        0x8 ./objs/system.o
 .group         0x0000000000000000        0x8 ./objs/system.o
 .note.GNU-stack
                0x0000000000000000        0x0 ./objs/system.o
 _ZNSt6vectorIP18FT_BitmapGlyphRec_SaIS1_EED5Ev
                0x0000000000000000        0x8 ./objs/text.o
 _ZNSt8_Rb_treeISsSt4pairIKSsP11FT_FaceRec_ESt10_Select1stIS4_ESt4lessISsESaIS4_EE13_Rb_tree_implIS8_Lb0EEC5Ev
                0x0000000000000000        0x8 ./objs/text.o
 .group         0x0000000000000000        0x8 ./objs/text.o
 _ZNSt8_Rb_treeISsSt4pairIKSsP11FT_FaceRec_ESt10_Select1stIS4_ESt4lessISsESaIS4_EED5Ev
                0x0000000000000000        0x8 ./objs/text.o
 _ZNSt3mapISsP11FT_FaceRec_St4lessISsESaISt4pairIKSsS1_EEED5Ev
                0x0000000000000000        0x8 ./objs/text.o
 .group         0x0000000000000000        0x8 ./objs/text.o
 .group         0x0000000000000000        0x8 ./objs/text.o
 .group         0x0000000000000000        0x8 ./objs/text.o
 .group         0x0000000000000000        0x8 ./objs/text.o
 .group         0x0000000000000000        0x8 ./objs/text.o
 .group         0x0000000000000000        0x8 ./objs/text.o
 .group         0x0000000000000000        0x8 ./objs/text.o
 .group         0x0000000000000000        0x8 ./objs/text.o
 .group         0x0000000000000000        0x8 ./objs/text.o
 .group         0x0000000000000000        0x8 ./objs/text.o
 .group         0x0000000000000000        0x8 ./objs/text.o
 .group         0x0000000000000000        0x8 ./objs/text.o
 .group         0x0000000000000000        0x8 ./objs/text.o
 .group         0x0000000000000000        0x8 ./objs/text.o
 .note.GNU-stack
                0x0000000000000000        0x0 ./objs/text.o
 _ZN8DrawableD5Ev
                0x0000000000000000        0xc ./objs/tilemap_xp.o
 .group         0x0000000000000000        0x8 ./objs/tilemap_xp.o
 .group         0x0000000000000000        0x8 ./objs/tilemap_xp.o
 _ZNSt6vectorIN7Tilemap8TileDataESaIS1_EED5Ev
                0x0000000000000000        0x8 ./objs/tilemap_xp.o
 .group         0x0000000000000000        0x8 ./objs/tilemap_xp.o
 .group         0x0000000000000000        0x8 ./objs/tilemap_xp.o
 .group         0x0000000000000000        0x8 ./objs/tilemap_xp.o
 .group         0x0000000000000000        0x8 ./objs/tilemap_xp.o
 .group         0x0000000000000000        0x8 ./objs/tilemap_xp.o
 .group         0x0000000000000000        0x8 ./objs/tilemap_xp.o
 .group         0x0000000000000000        0x8 ./objs/tilemap_xp.o
 .group         0x0000000000000000        0x8 ./objs/tilemap_xp.o
 .group         0x0000000000000000        0x8 ./objs/tilemap_xp.o
 .group         0x0000000000000000        0x8 ./objs/tilemap_xp.o
 _ZNSt8_Rb_treeImSt4pairIKmSt3mapIiS2_IiP6BitmapSt4lessIiESaIS0_IKiS4_EEES6_SaIS0_IS7_SA_EEEESt10_Select1stISE_ES5_ImESaISE_EE13_Rb_tree_implISH_Lb0EEC5Ev
                0x0000000000000000        0x8 ./objs/tilemap_xp.o
 .group         0x0000000000000000        0x8 ./objs/tilemap_xp.o
 .group         0x0000000000000000        0x8 ./objs/tilemap_xp.o
 .group         0x0000000000000000        0x8 ./objs/tilemap_xp.o
 .group         0x0000000000000000        0x8 ./objs/tilemap_xp.o
 _ZNSt8_Rb_treeIiSt4pairIKiP6BitmapESt10_Select1stIS4_ESt4lessIiESaIS4_EED5Ev
                0x0000000000000000        0x8 ./objs/tilemap_xp.o
 .group         0x0000000000000000        0x8 ./objs/tilemap_xp.o
 _ZNSt8_Rb_treeIiSt4pairIKiSt3mapIiP6BitmapSt4lessIiESaIS0_IS1_S4_EEEESt10_Select1stISA_ES6_SaISA_EED5Ev
                0x0000000000000000        0x8 ./objs/tilemap_xp.o
 .group         0x0000000000000000        0x8 ./objs/tilemap_xp.o
 _ZNSt8_Rb_treeImSt4pairIKmSt3mapIiS2_IiP6BitmapSt4lessIiESaIS0_IKiS4_EEES6_SaIS0_IS7_SA_EEEESt10_Select1stISE_ES5_ImESaISE_EED5Ev
                0x0000000000000000        0x8 ./objs/tilemap_xp.o
 .group         0x0000000000000000        0x8 ./objs/tilemap_xp.o
 .group         0x0000000000000000        0x8 ./objs/tilemap_xp.o
 .group         0x0000000000000000        0x8 ./objs/tilemap_xp.o
 .group         0x0000000000000000        0x8 ./objs/tilemap_xp.o
 .group         0x0000000000000000        0x8 ./objs/tilemap_xp.o
 .group         0x0000000000000000        0x8 ./objs/tilemap_xp.o
 _ZNSt8_Rb_treeIiSt4pairIKiSt3mapIiP6BitmapSt4lessIiESaIS0_IS1_S4_EEEESt10_Select1stISA_ES6_SaISA_EE13_Rb_tree_implIS6_Lb0EEC5Ev
                0x0000000000000000        0x8 ./objs/tilemap_xp.o
 _ZNSt8_Rb_treeIiSt4pairIKiP6BitmapESt10_Select1stIS4_ESt4lessIiESaIS4_EE13_Rb_tree_implIS8_Lb0EEC5Ev
                0x0000000000000000        0x8 ./objs/tilemap_xp.o
 .group         0x0000000000000000        0x8 ./objs/tilemap_xp.o
 .group         0x0000000000000000        0x8 ./objs/tilemap_xp.o
 .group         0x0000000000000000        0x8 ./objs/tilemap_xp.o
 .group         0x0000000000000000        0x8 ./objs/tilemap_xp.o
 .group         0x0000000000000000        0x8 ./objs/tilemap_xp.o
 .group         0x0000000000000000        0x8 ./objs/tilemap_xp.o
 _ZNSt6vectorIS_IN7Tilemap8TileDataESaIS1_EESaIS3_EED5Ev
                0x0000000000000000        0x8 ./objs/tilemap_xp.o
 .group         0x0000000000000000        0x8 ./objs/tilemap_xp.o
 _ZNSt6vectorIS_IS_IN7Tilemap8TileDataESaIS1_EESaIS3_EESaIS5_EED5Ev
                0x0000000000000000        0x8 ./objs/tilemap_xp.o
 .group         0x0000000000000000        0x8 ./objs/tilemap_xp.o
 .group         0x0000000000000000        0x8 ./objs/tilemap_xp.o
 .group         0x0000000000000000        0x8 ./objs/tilemap_xp.o
 .group         0x0000000000000000        0x8 ./objs/tilemap_xp.o
 _ZNSt8_Rb_treeIiSt4pairIKiP6BitmapESt10_Select1stIS4_ESt4lessIiESaIS4_EEC5ERKSA_
                0x0000000000000000        0x8 ./objs/tilemap_xp.o
 .group         0x0000000000000000        0x8 ./objs/tilemap_xp.o
 _ZNSt8_Rb_treeIiSt4pairIKiSt3mapIiP6BitmapSt4lessIiESaIS0_IS1_S4_EEEESt10_Select1stISA_ES6_SaISA_EEC5ERKSE_
                0x0000000000000000        0x8 ./objs/tilemap_xp.o
 .group         0x0000000000000000        0x8 ./objs/tilemap_xp.o
 .group         0x0000000000000000        0x8 ./objs/tilemap_xp.o
 .group         0x0000000000000000        0x8 ./objs/tilemap_xp.o
 .group         0x0000000000000000        0x8 ./objs/tilemap_xp.o
 .group         0x0000000000000000        0x8 ./objs/tilemap_xp.o
 .group         0x0000000000000000        0x8 ./objs/tilemap_xp.o
 .group         0x0000000000000000        0x8 ./objs/tilemap_xp.o
 .group         0x0000000000000000        0x8 ./objs/tilemap_xp.o
 .group         0x0000000000000000        0x8 ./objs/tilemap_xp.o
 .group         0x0000000000000000        0x8 ./objs/tilemap_xp.o
 .group         0x0000000000000000        0x8 ./objs/tilemap_xp.o
 .group         0x0000000000000000        0x8 ./objs/tilemap_xp.o
 .group         0x0000000000000000        0x8 ./objs/tilemap_xp.o
 _ZNSt6vectorIN7Tilemap8TileDataESaIS1_EEC5ERKS3_
                0x0000000000000000        0x8 ./objs/tilemap_xp.o
 .group         0x0000000000000000        0x8 ./objs/tilemap_xp.o
 .group         0x0000000000000000        0x8 ./objs/tilemap_xp.o
 _ZNSt6vectorIS_IN7Tilemap8TileDataESaIS1_EESaIS3_EEC5ERKS5_
                0x0000000000000000        0x8 ./objs/tilemap_xp.o
 .group         0x0000000000000000        0x8 ./objs/tilemap_xp.o
 .group         0x0000000000000000        0x8 ./objs/tilemap_xp.o
 .group         0x0000000000000000        0x8 ./objs/tilemap_xp.o
 .group         0x0000000000000000        0x8 ./objs/tilemap_xp.o
 .group         0x0000000000000000        0x8 ./objs/tilemap_xp.o
 .group         0x0000000000000000        0x8 ./objs/tilemap_xp.o
 .group         0x0000000000000000        0x8 ./objs/tilemap_xp.o
 .group         0x0000000000000000        0x8 ./objs/tilemap_xp.o
 .group         0x0000000000000000        0x8 ./objs/tilemap_xp.o
 .group         0x0000000000000000        0x8 ./objs/tilemap_xp.o
 .group         0x0000000000000000        0x8 ./objs/tilemap_xp.o
 .group         0x0000000000000000        0x8 ./objs/tilemap_xp.o
 .group         0x0000000000000000        0x8 ./objs/tilemap_xp.o
 .group         0x0000000000000000        0x8 ./objs/tilemap_xp.o
 .group         0x0000000000000000        0x8 ./objs/tilemap_xp.o
 .group         0x0000000000000000        0x8 ./objs/tilemap_xp.o
 .group         0x0000000000000000        0x8 ./objs/tilemap_xp.o
 .group         0x0000000000000000        0x8 ./objs/tilemap_xp.o
 .group         0x0000000000000000        0x8 ./objs/tilemap_xp.o
 .group         0x0000000000000000        0x8 ./objs/tilemap_xp.o
 .group         0x0000000000000000        0x8 ./objs/tilemap_xp.o
 .group         0x0000000000000000        0x8 ./objs/tilemap_xp.o
 .group         0x0000000000000000        0x8 ./objs/tilemap_xp.o
 .group         0x0000000000000000        0x8 ./objs/tilemap_xp.o
 .group         0x0000000000000000        0x8 ./objs/tilemap_xp.o
 .group         0x0000000000000000        0x8 ./objs/tilemap_xp.o
 .group         0x0000000000000000        0x8 ./objs/tilemap_xp.o
 .group         0x0000000000000000        0x8 ./objs/tilemap_xp.o
 .text._ZN8DrawableD2Ev
                0x0000000000000000       0x32 ./objs/tilemap_xp.o
 .text._ZN8DrawableD0Ev
                0x0000000000000000       0x3a ./objs/tilemap_xp.o
 .text._ZNSt18_Rb_tree_node_base10_S_minimumEPS_
                0x0000000000000000       0x38 ./objs/tilemap_xp.o
 .text._ZNSt18_Rb_tree_node_base10_S_maximumEPS_
                0x0000000000000000       0x38 ./objs/tilemap_xp.o
 .text._ZNKSt8_Rb_treeImSt4pairIKmP8DrawableESt10_Select1stIS4_ESt4lessImESaIS4_EE4findERS1_
                0x0000000000000000       0x72 ./objs/tilemap_xp.o
 .text._ZNKSt3mapImP8DrawableSt4lessImESaISt4pairIKmS1_EEE5countERS5_
                0x0000000000000000       0x4b ./objs/tilemap_xp.o
 .text._ZNSt8_Rb_treeImSt4pairIKmP8DrawableESt10_Select1stIS4_ESt4lessImESaIS4_EE4findERS1_
                0x0000000000000000       0x72 ./objs/tilemap_xp.o
 .text._ZNSt8_Rb_treeImSt4pairIKmP8DrawableESt10_Select1stIS4_ESt4lessImESaIS4_EE5eraseESt17_Rb_tree_iteratorIS4_E
                0x0000000000000000       0x4a ./objs/tilemap_xp.o
 .text._ZNSt8_Rb_treeImSt4pairIKmP8DrawableESt10_Select1stIS4_ESt4lessImESaIS4_EE11lower_boundERS1_
                0x0000000000000000       0x5f ./objs/tilemap_xp.o
 .text._ZNSt8_Rb_treeImSt4pairIKmP8DrawableESt10_Select1stIS4_ESt4lessImESaIS4_EE10_M_insert_EPKSt18_Rb_tree_node_baseSD_RKS4_
                0x0000000000000000       0xac ./objs/tilemap_xp.o
 .text._ZNSt8_Rb_treeImSt4pairIKmP8DrawableESt10_Select1stIS4_ESt4lessImESaIS4_EE16_M_insert_uniqueERKS4_
                0x0000000000000000       0xb4 ./objs/tilemap_xp.o
 .text._ZNSt8_Rb_treeImSt4pairIKmP8DrawableESt10_Select1stIS4_ESt4lessImESaIS4_EE17_M_insert_unique_ESt23_Rb_tree_const_iteratorIS4_ERKS4_
                0x0000000000000000      0x102 ./objs/tilemap_xp.o
 .text._ZNSt3mapImP8DrawableSt4lessImESaISt4pairIKmS1_EEE6insertESt17_Rb_tree_iteratorIS6_ERKS6_
                0x0000000000000000       0x43 ./objs/tilemap_xp.o
 .text._ZNSt3mapImP8DrawableSt4lessImESaISt4pairIKmS1_EEEixERS5_
                0x0000000000000000       0x79 ./objs/tilemap_xp.o
 .rodata._ZTV8Drawable
                0x0000000000000000       0x18 ./objs/tilemap_xp.o
 .rodata._ZTI8Drawable
                0x0000000000000000        0x8 ./objs/tilemap_xp.o
 .rodata._ZTS8Drawable
                0x0000000000000000        0xa ./objs/tilemap_xp.o
 .note.GNU-stack
                0x0000000000000000        0x0 ./objs/tilemap_xp.o
 .note.GNU-stack
                0x0000000000000000        0x0 ./objs/time_qt.o
 .note.GNU-stack
                0x0000000000000000        0x0 ./objs/tone.o
 _ZN8DrawableD5Ev
                0x0000000000000000        0xc ./objs/viewport.o
 .group         0x0000000000000000        0x8 ./objs/viewport.o
 .group         0x0000000000000000        0x8 ./objs/viewport.o
 .group         0x0000000000000000        0x8 ./objs/viewport.o
 .group         0x0000000000000000        0x8 ./objs/viewport.o
 .group         0x0000000000000000        0x8 ./objs/viewport.o
 .group         0x0000000000000000        0x8 ./objs/viewport.o
 .group         0x0000000000000000        0x8 ./objs/viewport.o
 .group         0x0000000000000000        0x8 ./objs/viewport.o
 .group         0x0000000000000000        0x8 ./objs/viewport.o
 .group         0x0000000000000000        0x8 ./objs/viewport.o
 .group         0x0000000000000000        0x8 ./objs/viewport.o
 .group         0x0000000000000000        0x8 ./objs/viewport.o
 .group         0x0000000000000000        0x8 ./objs/viewport.o
 .group         0x0000000000000000        0x8 ./objs/viewport.o
 .group         0x0000000000000000        0x8 ./objs/viewport.o
 .group         0x0000000000000000        0x8 ./objs/viewport.o
 .group         0x0000000000000000        0x8 ./objs/viewport.o
 .group         0x0000000000000000        0x8 ./objs/viewport.o
 .group         0x0000000000000000        0x8 ./objs/viewport.o
 .group         0x0000000000000000        0x8 ./objs/viewport.o
 .group         0x0000000000000000        0x8 ./objs/viewport.o
 .text._ZN8DrawableD2Ev
                0x0000000000000000       0x32 ./objs/viewport.o
 .text._ZN8DrawableD0Ev
                0x0000000000000000       0x3a ./objs/viewport.o
 .text._ZNSt4listI4ZObjSaIS0_EE9push_backERKS0_
                0x0000000000000000       0x5c ./objs/viewport.o
 .text._ZNSt4listI4ZObjSaIS0_EE9remove_ifI14remove_zobj_idEEvT_
                0x0000000000000000       0x7b ./objs/viewport.o
 .text._ZNSt10_List_baseI4ZObjSaIS0_EE8_M_clearEv
                0x0000000000000000       0x58 ./objs/viewport.o
 .text._ZNKSt8_Rb_treeImSt4pairIKmP8DrawableESt10_Select1stIS4_ESt4lessImESaIS4_EE4findERS1_
                0x0000000000000000       0x72 ./objs/viewport.o
 .text._ZNKSt3mapImP8DrawableSt4lessImESaISt4pairIKmS1_EEE5countERS5_
                0x0000000000000000       0x4b ./objs/viewport.o
 .text._ZNSt8_Rb_treeImSt4pairIKmP8DrawableESt10_Select1stIS4_ESt4lessImESaIS4_EE4findERS1_
                0x0000000000000000       0x72 ./objs/viewport.o
 .text._ZNSt8_Rb_treeImSt4pairIKmP8DrawableESt10_Select1stIS4_ESt4lessImESaIS4_EE5eraseESt17_Rb_tree_iteratorIS4_E
                0x0000000000000000       0x4a ./objs/viewport.o
 .text._ZNSt4listI4ZObjSaIS0_EE5mergeIPFbRS0_S4_EEEvRS2_T_
                0x0000000000000000       0xaf ./objs/viewport.o
 .text._ZNSt4listI4ZObjSaIS0_EE4sortIPFbRS0_S4_EEEvT_
                0x0000000000000000      0x1a4 ./objs/viewport.o
 .text._ZNSt8_Rb_treeImSt4pairIKmP8DrawableESt10_Select1stIS4_ESt4lessImESaIS4_EE11lower_boundERS1_
                0x0000000000000000       0x5f ./objs/viewport.o
 .text._ZNSt8_Rb_treeImSt4pairIKmP8DrawableESt10_Select1stIS4_ESt4lessImESaIS4_EE10_M_insert_EPKSt18_Rb_tree_node_baseSD_RKS4_
                0x0000000000000000       0xac ./objs/viewport.o
 .text._ZNSt8_Rb_treeImSt4pairIKmP8DrawableESt10_Select1stIS4_ESt4lessImESaIS4_EE16_M_insert_uniqueERKS4_
                0x0000000000000000       0xb4 ./objs/viewport.o
 .text._ZNSt8_Rb_treeImSt4pairIKmP8DrawableESt10_Select1stIS4_ESt4lessImESaIS4_EE17_M_insert_unique_ESt23_Rb_tree_const_iteratorIS4_ERKS4_
                0x0000000000000000      0x102 ./objs/viewport.o
 .text._ZNSt3mapImP8DrawableSt4lessImESaISt4pairIKmS1_EEE6insertESt17_Rb_tree_iteratorIS6_ERKS6_
                0x0000000000000000       0x43 ./objs/viewport.o
 .text._ZNSt3mapImP8DrawableSt4lessImESaISt4pairIKmS1_EEEixERS5_
                0x0000000000000000       0x79 ./objs/viewport.o
 .rodata._ZTV8Drawable
                0x0000000000000000       0x18 ./objs/viewport.o
 .rodata._ZTI8Drawable
                0x0000000000000000        0x8 ./objs/viewport.o
 .rodata._ZTS8Drawable
                0x0000000000000000        0xa ./objs/viewport.o
 .note.GNU-stack
                0x0000000000000000        0x0 ./objs/viewport.o
 _ZN8DrawableD5Ev
                0x0000000000000000        0xc ./objs/window_xp.o
 .group         0x0000000000000000        0x8 ./objs/window_xp.o
 .group         0x0000000000000000        0x8 ./objs/window_xp.o
 .group         0x0000000000000000        0x8 ./objs/window_xp.o
 .group         0x0000000000000000        0x8 ./objs/window_xp.o
 .group         0x0000000000000000        0x8 ./objs/window_xp.o
 .group         0x0000000000000000        0x8 ./objs/window_xp.o
 .group         0x0000000000000000        0x8 ./objs/window_xp.o
 .group         0x0000000000000000        0x8 ./objs/window_xp.o
 .group         0x0000000000000000        0x8 ./objs/window_xp.o
 .group         0x0000000000000000        0x8 ./objs/window_xp.o
 .group         0x0000000000000000        0x8 ./objs/window_xp.o
 .group         0x0000000000000000        0x8 ./objs/window_xp.o
 .group         0x0000000000000000        0x8 ./objs/window_xp.o
 .group         0x0000000000000000        0x8 ./objs/window_xp.o
 .group         0x0000000000000000        0x8 ./objs/window_xp.o
 .group         0x0000000000000000        0x8 ./objs/window_xp.o
 .text._ZN8DrawableD2Ev
                0x0000000000000000       0x32 ./objs/window_xp.o
 .text._ZN8DrawableD0Ev
                0x0000000000000000       0x3a ./objs/window_xp.o
 .text._ZNKSt8_Rb_treeImSt4pairIKmP8DrawableESt10_Select1stIS4_ESt4lessImESaIS4_EE4findERS1_
                0x0000000000000000       0x72 ./objs/window_xp.o
 .text._ZNKSt3mapImP8DrawableSt4lessImESaISt4pairIKmS1_EEE5countERS5_
                0x0000000000000000       0x4b ./objs/window_xp.o
 .text._ZNSt8_Rb_treeImSt4pairIKmP8DrawableESt10_Select1stIS4_ESt4lessImESaIS4_EE4findERS1_
                0x0000000000000000       0x72 ./objs/window_xp.o
 .text._ZNSt8_Rb_treeImSt4pairIKmP8DrawableESt10_Select1stIS4_ESt4lessImESaIS4_EE5eraseESt17_Rb_tree_iteratorIS4_E
                0x0000000000000000       0x4a ./objs/window_xp.o
 .text._ZNSt8_Rb_treeImSt4pairIKmP8DrawableESt10_Select1stIS4_ESt4lessImESaIS4_EE11lower_boundERS1_
                0x0000000000000000       0x5f ./objs/window_xp.o
 .text._ZNSt8_Rb_treeImSt4pairIKmP8DrawableESt10_Select1stIS4_ESt4lessImESaIS4_EE10_M_insert_EPKSt18_Rb_tree_node_baseSD_RKS4_
                0x0000000000000000       0xac ./objs/window_xp.o
 .text._ZNSt8_Rb_treeImSt4pairIKmP8DrawableESt10_Select1stIS4_ESt4lessImESaIS4_EE16_M_insert_uniqueERKS4_
                0x0000000000000000       0xb4 ./objs/window_xp.o
 .text._ZNSt8_Rb_treeImSt4pairIKmP8DrawableESt10_Select1stIS4_ESt4lessImESaIS4_EE17_M_insert_unique_ESt23_Rb_tree_const_iteratorIS4_ERKS4_
                0x0000000000000000      0x102 ./objs/window_xp.o
 .text._ZNSt3mapImP8DrawableSt4lessImESaISt4pairIKmS1_EEE6insertESt17_Rb_tree_iteratorIS6_ERKS6_
                0x0000000000000000       0x43 ./objs/window_xp.o
 .text._ZNSt3mapImP8DrawableSt4lessImESaISt4pairIKmS1_EEEixERS5_
                0x0000000000000000       0x79 ./objs/window_xp.o
 .rodata._ZTV8Drawable
                0x0000000000000000       0x18 ./objs/window_xp.o
 .rodata._ZTI8Drawable
                0x0000000000000000        0x8 ./objs/window_xp.o
 .rodata._ZTS8Drawable
                0x0000000000000000        0xa ./objs/window_xp.o
 .note.GNU-stack
                0x0000000000000000        0x0 ./objs/window_xp.o
 .group         0x0000000000000000        0x8 ./objs/windowui_qt.o
 .group         0x0000000000000000        0x8 ./objs/windowui_qt.o
 .group         0x0000000000000000        0x8 ./objs/windowui_qt.o
 .group         0x0000000000000000        0x8 ./objs/windowui_qt.o
 _ZN7QStringC5EPKc
                0x0000000000000000        0x8 ./objs/windowui_qt.o
 _ZN7QStringD5Ev
                0x0000000000000000        0x8 ./objs/windowui_qt.o
 .group         0x0000000000000000        0x8 ./objs/windowui_qt.o
 _ZNSt6vectorIbSaIbEED5Ev
                0x0000000000000000        0x8 ./objs/windowui_qt.o
 .group         0x0000000000000000        0x8 ./objs/windowui_qt.o
 .group         0x0000000000000000        0x8 ./objs/windowui_qt.o
 _ZNSt11_Deque_baseI5EventSaIS0_EED5Ev
                0x0000000000000000        0x8 ./objs/windowui_qt.o
 .group         0x0000000000000000        0x8 ./objs/windowui_qt.o
 .group         0x0000000000000000        0x8 ./objs/windowui_qt.o
 _ZNSt11_Deque_baseI5EventSaIS0_EEC5Ev
                0x0000000000000000        0x8 ./objs/windowui_qt.o
 .group         0x0000000000000000        0x8 ./objs/windowui_qt.o
 .group         0x0000000000000000        0x8 ./objs/windowui_qt.o
 .group         0x0000000000000000        0x8 ./objs/windowui_qt.o
 .group         0x0000000000000000        0x8 ./objs/windowui_qt.o
 .group         0x0000000000000000        0x8 ./objs/windowui_qt.o
 .group         0x0000000000000000        0x8 ./objs/windowui_qt.o
 .group         0x0000000000000000        0x8 ./objs/windowui_qt.o
 _ZNSt5dequeI5EventSaIS0_EEC5ERKS2_
                0x0000000000000000        0x8 ./objs/windowui_qt.o
 .group         0x0000000000000000        0x8 ./objs/windowui_qt.o
 .group         0x0000000000000000        0x8 ./objs/windowui_qt.o
 .group         0x0000000000000000        0x8 ./objs/windowui_qt.o
 .group         0x0000000000000000        0x8 ./objs/windowui_qt.o
 .group         0x0000000000000000        0x8 ./objs/windowui_qt.o
 .group         0x0000000000000000        0x8 ./objs/windowui_qt.o
 .group         0x0000000000000000        0x8 ./objs/windowui_qt.o
 .group         0x0000000000000000        0x8 ./objs/windowui_qt.o
 .group         0x0000000000000000        0x8 ./objs/windowui_qt.o
 .text._ZNSt14_Bit_referenceaSEb
                0x0000000000000000       0x40 ./objs/windowui_qt.o
 .text._ZNSt18_Bit_iterator_base7_M_incrEi
                0x0000000000000000       0x56 ./objs/windowui_qt.o
 .text._ZNKSt13_Bit_iteratorplEi
                0x0000000000000000       0x59 ./objs/windowui_qt.o
 .text._ZN15QBasicAtomicInt5derefEv
                0x0000000000000000       0x38 ./objs/windowui_qt.o
 .text._ZN7QStringC2EPKc
                0x0000000000000000       0x3f ./objs/windowui_qt.o
 .text._ZN7QStringD2Ev
                0x0000000000000000       0x58 ./objs/windowui_qt.o
 .text._ZN7QWidget6resizeEii
                0x0000000000000000       0x44 ./objs/windowui_qt.o
 .text._ZNSt6vectorIbSaIbEED2Ev
                0x0000000000000000       0x47 ./objs/windowui_qt.o
 .text._ZNSt6vectorIbSaIbEE13_M_initializeEj
                0x0000000000000000       0x73 ./objs/windowui_qt.o
 .note.GNU-stack
                0x0000000000000000        0x0 ./objs/windowui_qt.o
 .note.GNU-stack
                0x0000000000000000        0x0 ./objs/zobj.o
 .note.GNU-stack
                0x0000000000000000        0x0 src/SOIL/projects/makefile/obj/SOIL.o
 .note.GNU-stack
                0x0000000000000000        0x0 src/SOIL/projects/makefile/obj/image_DXT.o
 .note.GNU-stack
                0x0000000000000000        0x0 src/SOIL/projects/makefile/obj/image_helper.o
 .note.GNU-stack
                0x0000000000000000        0x0 src/SOIL/projects/makefile/obj/stb_image_aug.o
 .note.GNU-stack
                0x0000000000000000        0x0 ./objs/ConvertUTF.o
 .group         0x0000000000000000        0x8 /usr/lib/libc_nonshared.a(elf-init.oS)
 .note.GNU-stack
                0x0000000000000000        0x0 /usr/lib/libc_nonshared.a(elf-init.oS)
 .note.GNU-stack
                0x0000000000000000        0x0 /usr/local/lib/gcc/i686-pc-linux-gnu/4.5.0/crtend.o
 .note.GNU-stack
                0x0000000000000000        0x0 /usr/lib/crtn.o
 .gnu_debuglink
                0x0000000000000000        0xc /usr/lib/crtn.o

Memory Configuration

Name             Origin             Length             Attributes
*default*        0x0000000000000000 0xffffffffffffffff

Linker script and memory map

LOAD /usr/lib/crt1.o
LOAD /usr/lib/crti.o
LOAD /usr/local/lib/gcc/i686-pc-linux-gnu/4.5.0/crtbegin.o
LOAD ./objs/argss.o
LOAD ./objs/argss_audio.o
LOAD ./objs/argss_bitmap.o
LOAD ./objs/argss_color.o
LOAD ./objs/argss_error.o
LOAD ./objs/argss_font.o
LOAD ./objs/argss_graphics.o
LOAD ./objs/argss_input.o
LOAD ./objs/argss_keys.o
LOAD ./objs/argss_output.o
LOAD ./objs/argss_plane.o
LOAD ./objs/argss_rect.o
LOAD ./objs/argss_rpg.o
LOAD ./objs/argss_rpg_cache.o
LOAD ./objs/argss_rpg_sprite.o
LOAD ./objs/argss_rpg_weather.o
LOAD ./objs/argss_ruby.o
LOAD ./objs/argss_sprite.o
LOAD ./objs/argss_table.o
LOAD ./objs/argss_tilemap_xp.o
LOAD ./objs/argss_tilemapautotiles_xp.o
LOAD ./objs/argss_tone.o
LOAD ./objs/argss_viewport.o
LOAD ./objs/argss_window_xp.o
LOAD ./objs/audio.o
LOAD ./objs/bitmap.o
LOAD ./objs/buffer.o
LOAD ./objs/color.o
LOAD ./objs/console_qt.o
LOAD ./objs/filefinder_qt.o
LOAD ./objs/graphics.o
LOAD ./objs/hslrgb.o
LOAD ./objs/input.o
LOAD ./objs/inputbuttons_qt.o
LOAD ./objs/inputkeys.o
LOAD ./objs/main.o
LOAD ./objs/msgbox_qt.o
LOAD ./objs/output.o
LOAD ./objs/plane.o
LOAD ./objs/player.o
LOAD ./objs/rect.o
LOAD ./objs/socket.o
LOAD ./objs/sprite.o
LOAD ./objs/system.o
LOAD ./objs/text.o
LOAD ./objs/tilemap_xp.o
LOAD ./objs/time_qt.o
LOAD ./objs/tone.o
LOAD ./objs/viewport.o
LOAD ./objs/window_xp.o
LOAD ./objs/windowui_qt.o
LOAD ./objs/zobj.o
LOAD src/SOIL/projects/makefile/obj/SOIL.o
LOAD src/SOIL/projects/makefile/obj/image_DXT.o
LOAD src/SOIL/projects/makefile/obj/image_helper.o
LOAD src/SOIL/projects/makefile/obj/stb_image_aug.o
LOAD ./objs/ConvertUTF.o
LOAD /usr/lib/libSDL.so
LOAD /usr/lib/libGL.so
LOAD /usr/lib/libfreetype.so
LOAD /usr/lib/libz.so
LOAD /usr/lib/libSDL_mixer.so
LOAD /usr/lib/libQtGui.so
LOAD /usr/lib/libQtCore.so
LOAD /usr/lib/libQtOpenGL.so
LOAD /usr/lib/libruby-1.9.1.so
LOAD /usr/local/lib/gcc/i686-pc-linux-gnu/4.5.0/../../../libstdc++.so
LOAD /usr/lib/libm.so
LOAD /usr/local/lib/gcc/i686-pc-linux-gnu/4.5.0/../../../libgcc_s.so
LOAD /usr/local/lib/gcc/i686-pc-linux-gnu/4.5.0/libgcc.a
LOAD /usr/lib/libc.so
START GROUP
LOAD /lib/libc.so.6
LOAD /usr/lib/libc_nonshared.a
LOAD /lib/ld-linux.so.2
END GROUP
LOAD /usr/local/lib/gcc/i686-pc-linux-gnu/4.5.0/../../../libgcc_s.so
LOAD /usr/local/lib/gcc/i686-pc-linux-gnu/4.5.0/libgcc.a
LOAD /usr/local/lib/gcc/i686-pc-linux-gnu/4.5.0/crtend.o
LOAD /usr/lib/crtn.o
                0x0000000008048000                PROVIDE (__executable_start, 0x8048000)
                0x0000000008048134                . = (0x8048000 + SIZEOF_HEADERS)

.interp         0x0000000008048134       0x13
 *(.interp)
 .interp        0x0000000008048134       0x13 /usr/lib/crt1.o

.note.ABI-tag   0x0000000008048148       0x20
 .note.ABI-tag  0x0000000008048148       0x20 /usr/lib/crt1.o

.note.gnu.build-id
 *(.note.gnu.build-id)

.hash           0x0000000008048168      0x9bc
 *(.hash)
 .hash          0x0000000008048168      0x9bc /usr/lib/crt1.o

.gnu.hash
 *(.gnu.hash)

.dynsym         0x0000000008048b24     0x1660
 *(.dynsym)
 .dynsym        0x0000000008048b24     0x1660 /usr/lib/crt1.o

.dynstr         0x000000000804a184     0x1f00
 *(.dynstr)
 .dynstr        0x000000000804a184     0x1f00 /usr/lib/crt1.o

.gnu.version    0x000000000804c084      0x2cc
 *(.gnu.version)
 .gnu.version   0x000000000804c084      0x2cc /usr/lib/crt1.o

.gnu.version_d  0x000000000804c350        0x0
 *(.gnu.version_d)
 .gnu.version_d
                0x0000000000000000        0x0 /usr/lib/crt1.o

.gnu.version_r  0x000000000804c350       0xf0
 *(.gnu.version_r)
 .gnu.version_r
                0x000000000804c350       0xf0 /usr/lib/crt1.o

.rel.dyn        0x000000000804c440       0xc0
 *(.rel.init)
 *(.rel.text .rel.text.* .rel.gnu.linkonce.t.*)
 .rel.text      0x0000000000000000        0x0 /usr/lib/crt1.o
 .rel.text._ZSteqIcSt11char_traitsIcESaIcEEbRKSbIT_T0_T1_EPKS3_
                0x0000000000000000        0x0 /usr/lib/crt1.o
 .rel.text._ZNSt8_Rb_treeIiSt4pairIKiP9Mix_ChunkESt10_Select1stIS4_ESt4lessIiESaIS4_EE5eraseESt17_Rb_tree_iteratorIS4_E
                0x0000000000000000        0x0 /usr/lib/crt1.o
 .rel.text._ZNSt8_Rb_treeIiSt4pairIKiP9Mix_ChunkESt10_Select1stIS4_ESt4lessIiESaIS4_EE13_Rb_tree_implIS8_Lb0EEC2Ev
                0x0000000000000000        0x0 /usr/lib/crt1.o
 .rel.text._ZNSt8_Rb_treeIiSt4pairIKiP9Mix_ChunkESt10_Select1stIS4_ESt4lessIiESaIS4_EE8_M_eraseEPSt13_Rb_tree_nodeIS4_E
                0x0000000000000000        0x0 /usr/lib/crt1.o
 .rel.text._ZNSt8_Rb_treeIiSt4pairIKiP9Mix_ChunkESt10_Select1stIS4_ESt4lessIiESaIS4_EED2Ev
                0x0000000000000000        0x0 /usr/lib/crt1.o
 .rel.text._ZNSt3mapIiP9Mix_ChunkSt4lessIiESaISt4pairIKiS1_EEED2Ev
                0x0000000000000000        0x0 /usr/lib/crt1.o
 .rel.text._ZNSt8_Rb_treeIiSt4pairIKiP9Mix_ChunkESt10_Select1stIS4_ESt4lessIiESaIS4_EE5clearEv
                0x0000000000000000        0x0 /usr/lib/crt1.o
 .rel.text._ZNSt8_Rb_treeIiSt4pairIKiP9Mix_ChunkESt10_Select1stIS4_ESt4lessIiESaIS4_EE11lower_boundERS1_
                0x0000000000000000        0x0 /usr/lib/crt1.o
 .rel.text._ZNSt8_Rb_treeIiSt4pairIKiP9Mix_ChunkESt10_Select1stIS4_ESt4lessIiESaIS4_EE10_M_insert_EPKSt18_Rb_tree_node_baseSD_RKS4_
                0x0000000000000000        0x0 /usr/lib/crt1.o
 .rel.text._ZNSt8_Rb_treeIiSt4pairIKiP9Mix_ChunkESt10_Select1stIS4_ESt4lessIiESaIS4_EE16_M_insert_uniqueERKS4_
                0x0000000000000000        0x0 /usr/lib/crt1.o
 .rel.text._ZNSt8_Rb_treeIiSt4pairIKiP9Mix_ChunkESt10_Select1stIS4_ESt4lessIiESaIS4_EE17_M_insert_unique_ESt23_Rb_tree_const_iteratorIS4_ERKS4_
                0x0000000000000000        0x0 /usr/lib/crt1.o
 .rel.text._ZNSt3mapIiP9Mix_ChunkSt4lessIiESaISt4pairIKiS1_EEE6insertESt17_Rb_tree_iteratorIS6_ERKS6_
                0x0000000000000000        0x0 /usr/lib/crt1.o
 .rel.text._ZNSt3mapIiP9Mix_ChunkSt4lessIiESaISt4pairIKiS1_EEEixERS5_
                0x0000000000000000        0x0 /usr/lib/crt1.o
 .rel.text._ZNSt6vectorIjSaIjEED2Ev
                0x0000000000000000        0x0 /usr/lib/crt1.o
 .rel.text._ZNKSt8_Rb_treeImSt4pairIKmP6BitmapESt10_Select1stIS4_ESt4lessImESaIS4_EE4findERS1_
                0x0000000000000000        0x0 /usr/lib/crt1.o
 .rel.text._ZNKSt3mapImP6BitmapSt4lessImESaISt4pairIKmS1_EEE5countERS5_
                0x0000000000000000        0x0 /usr/lib/crt1.o
 .rel.text._ZNSt8_Rb_treeImSt4pairIKmP6BitmapESt10_Select1stIS4_ESt4lessImESaIS4_EE4findERS1_
                0x0000000000000000        0x0 /usr/lib/crt1.o
 .rel.text._ZNSt8_Rb_treeImSt4pairIKmP6BitmapESt10_Select1stIS4_ESt4lessImESaIS4_EE5eraseESt17_Rb_tree_iteratorIS4_E
                0x0000000000000000        0x0 /usr/lib/crt1.o
 .rel.text._ZNSt8_Rb_treeImSt4pairIKmP6BitmapESt10_Select1stIS4_ESt4lessImESaIS4_EE13_Rb_tree_implIS8_Lb0EEC2Ev
                0x0000000000000000        0x0 /usr/lib/crt1.o
 .rel.text._ZNSt8_Rb_treeImSt4pairIKmP6BitmapESt10_Select1stIS4_ESt4lessImESaIS4_EE8_M_eraseEPSt13_Rb_tree_nodeIS4_E
                0x0000000000000000        0x0 /usr/lib/crt1.o
 .rel.text._ZNSt8_Rb_treeImSt4pairIKmP6BitmapESt10_Select1stIS4_ESt4lessImESaIS4_EED2Ev
                0x0000000000000000        0x0 /usr/lib/crt1.o
 .rel.text._ZNSt3mapImP6BitmapSt4lessImESaISt4pairIKmS1_EEED2Ev
                0x0000000000000000        0x0 /usr/lib/crt1.o
 .rel.text._ZNSt8_Rb_treeImSt4pairIKmP6BitmapESt10_Select1stIS4_ESt4lessImESaIS4_EE5clearEv
                0x0000000000000000        0x0 /usr/lib/crt1.o
 .rel.text._ZNSt8_Rb_treeImSt4pairIKmP6BitmapESt10_Select1stIS4_ESt4lessImESaIS4_EE11lower_boundERS1_
                0x0000000000000000        0x0 /usr/lib/crt1.o
 .rel.text._ZNKSt6vectorIjSaIjEE12_M_check_lenEjPKc
                0x0000000000000000        0x0 /usr/lib/crt1.o
 .rel.text._ZNSt8_Rb_treeImSt4pairIKmP6BitmapESt10_Select1stIS4_ESt4lessImESaIS4_EE10_M_insert_EPKSt18_Rb_tree_node_baseSD_RKS4_
                0x0000000000000000        0x0 /usr/lib/crt1.o
 .rel.text._ZNSt8_Rb_treeImSt4pairIKmP6BitmapESt10_Select1stIS4_ESt4lessImESaIS4_EE16_M_insert_uniqueERKS4_
                0x0000000000000000        0x0 /usr/lib/crt1.o
 .rel.text._ZNSt8_Rb_treeImSt4pairIKmP6BitmapESt10_Select1stIS4_ESt4lessImESaIS4_EE17_M_insert_unique_ESt23_Rb_tree_const_iteratorIS4_ERKS4_
                0x0000000000000000        0x0 /usr/lib/crt1.o
 .rel.text._ZNSt3mapImP6BitmapSt4lessImESaISt4pairIKmS1_EEE6insertESt17_Rb_tree_iteratorIS6_ERKS6_
                0x0000000000000000        0x0 /usr/lib/crt1.o
 .rel.text._ZNSt3mapImP6BitmapSt4lessImESaISt4pairIKmS1_EEEixERS5_
                0x0000000000000000        0x0 /usr/lib/crt1.o
 .rel.text._ZNSt20__copy_move_backwardILb0ELb1ESt26random_access_iterator_tagE13__copy_move_bIjEEPT_PKS3_S6_S4_
                0x0000000000000000        0x0 /usr/lib/crt1.o
 .rel.text._ZNSt11__copy_moveILb0ELb1ESt26random_access_iterator_tagE8__copy_mIjEEPT_PKS3_S6_S4_
                0x0000000000000000        0x0 /usr/lib/crt1.o
 .rel.text._ZNSt6vectorIjSaIjEE14_M_fill_insertEN9__gnu_cxx17__normal_iteratorIPjS1_EEjRKj
                0x0000000000000000        0x0 /usr/lib/crt1.o
 .rel.text._ZNSt6vectorIjSaIjEE6resizeEjj
                0x0000000000000000        0x0 /usr/lib/crt1.o
 .rel.text._ZStneIcSt11char_traitsIcESaIcEEbRKSbIT_T0_T1_EPKS3_
                0x0000000000000000        0x0 /usr/lib/crt1.o
 .rel.text._ZN15QBasicAtomicInt5derefEv
                0x0000000000000000        0x0 /usr/lib/crt1.o
 .rel.text._ZN7QStringC2EPKc
                0x0000000000000000        0x0 /usr/lib/crt1.o
 .rel.text._ZN7QStringD2Ev
                0x0000000000000000        0x0 /usr/lib/crt1.o
 .rel.text._ZN8WindowUi8SetTitleERKSs
                0x0000000000000000        0x0 /usr/lib/crt1.o
 .rel.text._ZNSt4listI4ZObjSaIS0_EE9push_backERKS0_
                0x0000000000000000        0x0 /usr/lib/crt1.o
 .rel.text._ZNSt4listI4ZObjSaIS0_EE9remove_ifI14remove_zobj_idEEvT_
                0x0000000000000000        0x0 /usr/lib/crt1.o
 .rel.text._ZNSt4listI4ZObjSaIS0_EE5mergeIPFbRS0_S4_EEEvRS2_T_
                0x0000000000000000        0x0 /usr/lib/crt1.o
 .rel.text._ZNSt8_Rb_treeImSt4pairIKmP8DrawableESt10_Select1stIS4_ESt4lessImESaIS4_EE13_Rb_tree_implIS8_Lb0EEC2Ev
                0x0000000000000000        0x0 /usr/lib/crt1.o
 .rel.text._ZNSt8_Rb_treeImSt4pairIKmP8DrawableESt10_Select1stIS4_ESt4lessImESaIS4_EE8_M_eraseEPSt13_Rb_tree_nodeIS4_E
                0x0000000000000000        0x0 /usr/lib/crt1.o
 .rel.text._ZNSt8_Rb_treeImSt4pairIKmP8DrawableESt10_Select1stIS4_ESt4lessImESaIS4_EED2Ev
                0x0000000000000000        0x0 /usr/lib/crt1.o
 .rel.text._ZNSt3mapImP8DrawableSt4lessImESaISt4pairIKmS1_EEED2Ev
                0x0000000000000000        0x0 /usr/lib/crt1.o
 .rel.text._ZNSt8_Rb_treeImSt4pairIKmP8DrawableESt10_Select1stIS4_ESt4lessImESaIS4_EE5clearEv
                0x0000000000000000        0x0 /usr/lib/crt1.o
 .rel.text._ZNSt10_List_baseI4ZObjSaIS0_EE8_M_clearEv
                0x0000000000000000        0x0 /usr/lib/crt1.o
 .rel.text._ZNSt4listI4ZObjSaIS0_EED2Ev
                0x0000000000000000        0x0 /usr/lib/crt1.o
 .rel.text._ZNSt4listI4ZObjSaIS0_EE4sortIPFbRS0_S4_EEEvT_
                0x0000000000000000        0x0 /usr/lib/crt1.o
 .rel.text._ZNSt8_Rb_treeImSt4pairIKmP8DrawableESt10_Select1stIS4_ESt4lessImESaIS4_EE11lower_boundERS1_
                0x0000000000000000        0x0 /usr/lib/crt1.o
 .rel.text._ZNSt8_Rb_treeImSt4pairIKmP8DrawableESt10_Select1stIS4_ESt4lessImESaIS4_EE10_M_insert_EPKSt18_Rb_tree_node_baseSD_RKS4_
                0x0000000000000000        0x0 /usr/lib/crt1.o
 .rel.text._ZNSt8_Rb_treeImSt4pairIKmP8DrawableESt10_Select1stIS4_ESt4lessImESaIS4_EE16_M_insert_uniqueERKS4_
                0x0000000000000000        0x0 /usr/lib/crt1.o
 .rel.text._ZNSt8_Rb_treeImSt4pairIKmP8DrawableESt10_Select1stIS4_ESt4lessImESaIS4_EE17_M_insert_unique_ESt23_Rb_tree_const_iteratorIS4_ERKS4_
                0x0000000000000000        0x0 /usr/lib/crt1.o
 .rel.text._ZNSt3mapImP8DrawableSt4lessImESaISt4pairIKmS1_EEE6insertESt17_Rb_tree_iteratorIS6_ERKS6_
                0x0000000000000000        0x0 /usr/lib/crt1.o
 .rel.text._ZNSt3mapImP8DrawableSt4lessImESaISt4pairIKmS1_EEEixERS5_
                0x0000000000000000        0x0 /usr/lib/crt1.o
 .rel.text._ZNSt6vectorIiSaIiEED2Ev
                0x0000000000000000        0x0 /usr/lib/crt1.o
 .rel.text._ZNSt6vectorIbSaIbEED2Ev
                0x0000000000000000        0x0 /usr/lib/crt1.o
 .rel.text._ZNSt14_Bit_referenceaSEb
                0x0000000000000000        0x0 /usr/lib/crt1.o
 .rel.text._ZNSt14_Bit_referenceaSERKS_
                0x0000000000000000        0x0 /usr/lib/crt1.o
 .rel.text._ZNSt18_Bit_iterator_base10_M_bump_upEv
                0x0000000000000000        0x0 /usr/lib/crt1.o
 .rel.text._ZNSt18_Bit_iterator_base12_M_bump_downEv
                0x0000000000000000        0x0 /usr/lib/crt1.o
 .rel.text._ZNSt18_Bit_iterator_base7_M_incrEi
                0x0000000000000000        0x0 /usr/lib/crt1.o
 .rel.text._ZNKSt18_Bit_iterator_baseneERKS_
                0x0000000000000000        0x0 /usr/lib/crt1.o
 .rel.text._ZNKSt13_Bit_iteratorplEi
                0x0000000000000000        0x0 /usr/lib/crt1.o
 .rel.text._ZNKSt19_Bit_const_iteratordeEv
                0x0000000000000000        0x0 /usr/lib/crt1.o
 .rel.text._ZSt14__fill_bvectorSt13_Bit_iteratorS_b
                0x0000000000000000        0x0 /usr/lib/crt1.o
 .rel.text._ZSt4fillSt13_Bit_iteratorS_RKb
                0x0000000000000000        0x0 /usr/lib/crt1.o
 .rel.text._ZNKSt6vectorIbSaIbEE4sizeEv
                0x0000000000000000        0x0 /usr/lib/crt1.o
 .rel.text._ZNSt6vectorIbSaIbEE13_M_initializeEj
                0x0000000000000000        0x0 /usr/lib/crt1.o
 .rel.text._ZNKSt8_Rb_treeIiSt4pairIKiSt6vectorIiSaIiEEESt10_Select1stIS5_ESt4lessIiESaIS5_EE4findERS1_
                0x0000000000000000        0x0 /usr/lib/crt1.o
 .rel.text._ZNKSt3mapIiSt6vectorIiSaIiEESt4lessIiESaISt4pairIKiS2_EEE5countERS6_
                0x0000000000000000        0x0 /usr/lib/crt1.o
 .rel.text._ZNKSt6vectorIiSaIiEE12_M_check_lenEjPKc
                0x0000000000000000        0x0 /usr/lib/crt1.o
 .rel.text._ZNSt8_Rb_treeIiSt4pairIKiSt6vectorIiSaIiEEESt10_Select1stIS5_ESt4lessIiESaIS5_EE11lower_boundERS1_
                0x0000000000000000        0x0 /usr/lib/crt1.o
 .rel.text._ZNKSt6vectorIbSaIbEE8capacityEv
                0x0000000000000000        0x0 /usr/lib/crt1.o
 .rel.text._ZNKSt6vectorIbSaIbEE12_M_check_lenEjPKc
                0x0000000000000000        0x0 /usr/lib/crt1.o
 .rel.text._ZNKSt6vectorIS_IiSaIiEESaIS1_EE12_M_check_lenEjPKc
                0x0000000000000000        0x0 /usr/lib/crt1.o
 .rel.text._ZNSt12_Destroy_auxILb0EE9__destroyIPSt6vectorIiSaIiEEEEvT_S6_
                0x0000000000000000        0x0 /usr/lib/crt1.o
 .rel.text._ZNSt6vectorIS_IiSaIiEESaIS1_EED2Ev
                0x0000000000000000        0x0 /usr/lib/crt1.o
 .rel.text._ZNSt20__copy_move_backwardILb0ELb1ESt26random_access_iterator_tagE13__copy_move_bIiEEPT_PKS3_S6_S4_
                0x0000000000000000        0x0 /usr/lib/crt1.o
 .rel.text._ZNSt11__copy_moveILb0ELb1ESt26random_access_iterator_tagE8__copy_mImEEPT_PKS3_S6_S4_
                0x0000000000000000        0x0 /usr/lib/crt1.o
 .rel.text._ZNSt11__copy_moveILb0ELb0ESt26random_access_iterator_tagE8__copy_mISt19_Bit_const_iteratorSt13_Bit_iteratorEET0_T_S6_S5_
                0x0000000000000000        0x0 /usr/lib/crt1.o
 .rel.text._ZSt14__copy_move_a2ILb0ESt19_Bit_const_iteratorSt13_Bit_iteratorET1_T0_S3_S2_
                0x0000000000000000        0x0 /usr/lib/crt1.o
 .rel.text._ZSt4copyISt19_Bit_const_iteratorSt13_Bit_iteratorET0_T_S3_S2_
                0x0000000000000000        0x0 /usr/lib/crt1.o
 .rel.text._ZNSt6vectorIbSaIbEEC2ERKS1_
                0x0000000000000000        0x0 /usr/lib/crt1.o
 .rel.text._ZNSt20__copy_move_backwardILb0ELb0ESt26random_access_iterator_tagE13__copy_move_bISt13_Bit_iteratorS3_EET0_T_S5_S4_
                0x0000000000000000        0x0 /usr/lib/crt1.o
 .rel.text._ZSt23__copy_move_backward_a2ILb0ESt13_Bit_iteratorS0_ET1_T0_S2_S1_
                0x0000000000000000        0x0 /usr/lib/crt1.o
 .rel.text._ZSt13copy_backwardISt13_Bit_iteratorS0_ET0_T_S2_S1_
                0x0000000000000000        0x0 /usr/lib/crt1.o
 .rel.text._ZNSt11__copy_moveILb0ELb0ESt26random_access_iterator_tagE8__copy_mISt13_Bit_iteratorS3_EET0_T_S5_S4_
                0x0000000000000000        0x0 /usr/lib/crt1.o
 .rel.text._ZSt14__copy_move_a2ILb0ESt13_Bit_iteratorS0_ET1_T0_S2_S1_
                0x0000000000000000        0x0 /usr/lib/crt1.o
 .rel.text._ZSt4copyISt13_Bit_iteratorS0_ET0_T_S2_S1_
                0x0000000000000000        0x0 /usr/lib/crt1.o
 .rel.text._ZNSt6vectorIbSaIbEE14_M_fill_insertESt13_Bit_iteratorjb
                0x0000000000000000        0x0 /usr/lib/crt1.o
 .rel.text._ZNSt6vectorIbSaIbEE6resizeEjb
                0x0000000000000000        0x0 /usr/lib/crt1.o
 .rel.text._ZNSt11__copy_moveILb0ELb1ESt26random_access_iterator_tagE8__copy_mIiEEPT_PKS3_S6_S4_
                0x0000000000000000        0x0 /usr/lib/crt1.o
 .rel.text._ZNSt6vectorIiSaIiEEC2ERKS1_
                0x0000000000000000        0x0 /usr/lib/crt1.o
 .rel.text._ZNSt8_Rb_treeIiSt4pairIKiSt6vectorIiSaIiEEESt10_Select1stIS5_ESt4lessIiESaIS5_EE10_M_insert_EPKSt18_Rb_tree_node_baseSE_RKS5_
                0x0000000000000000        0x0 /usr/lib/crt1.o
 .rel.text._ZNSt8_Rb_treeIiSt4pairIKiSt6vectorIiSaIiEEESt10_Select1stIS5_ESt4lessIiESaIS5_EE16_M_insert_uniqueERKS5_
                0x0000000000000000        0x0 /usr/lib/crt1.o
 .rel.text._ZNSt8_Rb_treeIiSt4pairIKiSt6vectorIiSaIiEEESt10_Select1stIS5_ESt4lessIiESaIS5_EE17_M_insert_unique_ESt23_Rb_tree_const_iteratorIS5_ERKS5_
                0x0000000000000000        0x0 /usr/lib/crt1.o
 .rel.text._ZNSt3mapIiSt6vectorIiSaIiEESt4lessIiESaISt4pairIKiS2_EEE6insertESt17_Rb_tree_iteratorIS7_ERKS7_
                0x0000000000000000        0x0 /usr/lib/crt1.o
 .rel.text._ZNSt3mapIiSt6vectorIiSaIiEESt4lessIiESaISt4pairIKiS2_EEEixERS6_
                0x0000000000000000        0x0 /usr/lib/crt1.o
 .rel.text._ZSt10_ConstructISt6vectorIiSaIiEES2_EvPT_RKT0_
                0x0000000000000000        0x0 /usr/lib/crt1.o
 .rel.text._ZNSt22__uninitialized_fill_nILb0EE20uninitialized_fill_nIPSt6vectorIiSaIiEEjS4_EEvT_T0_RKT1_
                0x0000000000000000        0x0 /usr/lib/crt1.o
 .rel.text._ZNSt20__uninitialized_copyILb0EE18uninitialized_copyIPSt6vectorIiSaIiEES5_EET0_T_S7_S6_
                0x0000000000000000        0x0 /usr/lib/crt1.o
 .rel.text._ZNSt6vectorIiSaIiEE14_M_fill_insertEN9__gnu_cxx17__normal_iteratorIPiS1_EEjRKi
                0x0000000000000000        0x0 /usr/lib/crt1.o
 .rel.text._ZNSt6vectorIiSaIiEE6resizeEji
                0x0000000000000000        0x0 /usr/lib/crt1.o
 .rel.text._ZNSt6vectorIiSaIiEE13_M_insert_auxEN9__gnu_cxx17__normal_iteratorIPiS1_EERKi
                0x0000000000000000        0x0 /usr/lib/crt1.o
 .rel.text._ZNSt6vectorIiSaIiEE9push_backERKi
                0x0000000000000000        0x0 /usr/lib/crt1.o
 .rel.text._ZNSt6vectorIiSaIiEEaSERKS1_
                0x0000000000000000        0x0 /usr/lib/crt1.o
 .rel.text._ZNSt20__copy_move_backwardILb0ELb0ESt26random_access_iterator_tagE13__copy_move_bIPSt6vectorIiSaIiEES6_EET0_T_S8_S7_
                0x0000000000000000        0x0 /usr/lib/crt1.o
 .rel.text._ZSt8__fill_aIPSt6vectorIiSaIiEES2_EN9__gnu_cxx11__enable_ifIXntsrSt11__is_scalarIT0_E7__valueEvE6__typeET_SB_RKS7_
                0x0000000000000000        0x0 /usr/lib/crt1.o
 .rel.text._ZNSt6vectorIS_IiSaIiEESaIS1_EE14_M_fill_insertEN9__gnu_cxx17__normal_iteratorIPS1_S3_EEjRKS1_
                0x0000000000000000        0x0 /usr/lib/crt1.o
 .rel.text._ZNSt6vectorIS_IiSaIiEESaIS1_EE6resizeEjS1_
                0x0000000000000000        0x0 /usr/lib/crt1.o
 .rel.text._ZNSt8_Rb_treeIiSt4pairIKiSt6vectorIiSaIiEEESt10_Select1stIS5_ESt4lessIiESaIS5_EE13_Rb_tree_implIS9_Lb0EEC2Ev
                0x0000000000000000        0x0 /usr/lib/crt1.o
 .rel.text._ZNSt8_Rb_treeIiSt4pairIKiSt6vectorIiSaIiEEESt10_Select1stIS5_ESt4lessIiESaIS5_EE8_M_eraseEPSt13_Rb_tree_nodeIS5_E
                0x0000000000000000        0x0 /usr/lib/crt1.o
 .rel.text._ZNSt8_Rb_treeIiSt4pairIKiSt6vectorIiSaIiEEESt10_Select1stIS5_ESt4lessIiESaIS5_EED2Ev
                0x0000000000000000        0x0 /usr/lib/crt1.o
 .rel.text._ZNSt3mapIiSt6vectorIiSaIiEESt4lessIiESaISt4pairIKiS2_EEED2Ev
                0x0000000000000000        0x0 /usr/lib/crt1.o
 .rel.text._ZN10MainThread3runEv
                0x0000000000000000        0x0 /usr/lib/crt1.o
 .rel.text._ZN10MainThreadD2Ev
                0x0000000000000000        0x0 /usr/lib/crt1.o
 .rel.text._ZN10MainThreadD0Ev
                0x0000000000000000        0x0 /usr/lib/crt1.o
 .rel.text._ZN8DrawableD2Ev
                0x0000000000000000        0x0 /usr/lib/crt1.o
 .rel.text._ZN8DrawableD0Ev
                0x0000000000000000        0x0 /usr/lib/crt1.o
 .rel.text._ZNKSt8_Rb_treeImSt4pairIKmP8DrawableESt10_Select1stIS4_ESt4lessImESaIS4_EE4findERS1_
                0x0000000000000000        0x0 /usr/lib/crt1.o
 .rel.text._ZNKSt3mapImP8DrawableSt4lessImESaISt4pairIKmS1_EEE5countERS5_
                0x0000000000000000        0x0 /usr/lib/crt1.o
 .rel.text._ZNSt8_Rb_treeImSt4pairIKmP8DrawableESt10_Select1stIS4_ESt4lessImESaIS4_EE4findERS1_
                0x0000000000000000        0x0 /usr/lib/crt1.o
 .rel.text._ZNSt8_Rb_treeImSt4pairIKmP8DrawableESt10_Select1stIS4_ESt4lessImESaIS4_EE5eraseESt17_Rb_tree_iteratorIS4_E
                0x0000000000000000        0x0 /usr/lib/crt1.o
 .rel.text._ZN7QWidget6resizeEii
                0x0000000000000000        0x0 /usr/lib/crt1.o
 .rel.text._ZNSt18_Rb_tree_node_base10_S_minimumEPS_
                0x0000000000000000        0x0 /usr/lib/crt1.o
 .rel.text._ZNSt18_Rb_tree_node_base10_S_maximumEPS_
                0x0000000000000000        0x0 /usr/lib/crt1.o
 .rel.text._ZNSt10_List_baseIN15CSimpleIniTemplIc16SI_GenericNoCaseIcE11SI_ConvertAIcEE5EntryESaIS6_EE8_M_clearEv
                0x0000000000000000        0x0 /usr/lib/crt1.o
 .rel.text._ZNKSt8_Rb_treeIN15CSimpleIniTemplIc16SI_GenericNoCaseIcE11SI_ConvertAIcEE5EntryESt4pairIKS6_St8multimapIS6_PKcNS6_8KeyOrderESaIS7_IS8_SB_EEEESt10_Select1stISG_ESC_SaISG_EE4findERS8_
                0x0000000000000000        0x0 /usr/lib/crt1.o
 .rel.text._ZNKSt8_Rb_treeIN15CSimpleIniTemplIc16SI_GenericNoCaseIcE11SI_ConvertAIcEE5EntryESt4pairIKS6_PKcESt10_Select1stISB_ENS6_8KeyOrderESaISB_EE4findERS8_
                0x0000000000000000        0x0 /usr/lib/crt1.o
 .rel.text._ZNK15CSimpleIniTemplIc16SI_GenericNoCaseIcE11SI_ConvertAIcEE8GetValueEPKcS6_S6_Pb
                0x0000000000000000        0x0 /usr/lib/crt1.o
 .rel.text._ZNK15CSimpleIniTemplIc16SI_GenericNoCaseIcE11SI_ConvertAIcEE12GetLongValueEPKcS6_lPb
                0x0000000000000000        0x0 /usr/lib/crt1.o
 .rel.text._ZNSt8_Rb_treeIN15CSimpleIniTemplIc16SI_GenericNoCaseIcE11SI_ConvertAIcEE5EntryESt4pairIKS6_St8multimapIS6_PKcNS6_8KeyOrderESaIS7_IS8_SB_EEEESt10_Select1stISG_ESC_SaISG_EE13_Rb_tree_implISC_Lb0EEC2Ev
                0x0000000000000000        0x0 /usr/lib/crt1.o
 .rel.text._ZNK15CSimpleIniTemplIc16SI_GenericNoCaseIcE11SI_ConvertAIcEE17LoadMultiLineTextERPcRPKcS8_b
                0x0000000000000000        0x0 /usr/lib/crt1.o
 .rel.text._ZNK15CSimpleIniTemplIc16SI_GenericNoCaseIcE11SI_ConvertAIcEE9FindEntryERPcRPKcS9_S9_S9_
                0x0000000000000000        0x0 /usr/lib/crt1.o
 .rel.text._ZNSt4listIN15CSimpleIniTemplIc16SI_GenericNoCaseIcE11SI_ConvertAIcEE5EntryESaIS6_EE9push_backERKS6_
                0x0000000000000000        0x0 /usr/lib/crt1.o
 .rel.text._ZN15CSimpleIniTemplIc16SI_GenericNoCaseIcE11SI_ConvertAIcEE10CopyStringERPKc
                0x0000000000000000        0x0 /usr/lib/crt1.o
 .rel.text._ZN15CSimpleIniTemplIc16SI_GenericNoCaseIcE11SI_ConvertAIcEE15FindFileCommentERPcb
                0x0000000000000000        0x0 /usr/lib/crt1.o
 .rel.text._ZNSt8_Rb_treeIN15CSimpleIniTemplIc16SI_GenericNoCaseIcE11SI_ConvertAIcEE5EntryESt4pairIKS6_St8multimapIS6_PKcNS6_8KeyOrderESaIS7_IS8_SB_EEEESt10_Select1stISG_ESC_SaISG_EE4findERS8_
                0x0000000000000000        0x0 /usr/lib/crt1.o
 .rel.text._ZNSt8_Rb_treeIN15CSimpleIniTemplIc16SI_GenericNoCaseIcE11SI_ConvertAIcEE5EntryESt4pairIKS6_PKcESt10_Select1stISB_ENS6_8KeyOrderESaISB_EE8_M_eraseEPSt13_Rb_tree_nodeISB_E
                0x0000000000000000        0x0 /usr/lib/crt1.o
 .rel.text._ZNSt8_Rb_treeIN15CSimpleIniTemplIc16SI_GenericNoCaseIcE11SI_ConvertAIcEE5EntryESt4pairIKS6_PKcESt10_Select1stISB_ENS6_8KeyOrderESaISB_EED2Ev
                0x0000000000000000        0x0 /usr/lib/crt1.o
 .rel.text._ZNSt8_Rb_treeIN15CSimpleIniTemplIc16SI_GenericNoCaseIcE11SI_ConvertAIcEE5EntryESt4pairIKS6_St8multimapIS6_PKcNS6_8KeyOrderESaIS7_IS8_SB_EEEESt10_Select1stISG_ESC_SaISG_EE8_M_eraseEPSt13_Rb_tree_nodeISG_E
                0x0000000000000000        0x0 /usr/lib/crt1.o
 .rel.text._ZNSt8_Rb_treeIN15CSimpleIniTemplIc16SI_GenericNoCaseIcE11SI_ConvertAIcEE5EntryESt4pairIKS6_St8multimapIS6_PKcNS6_8KeyOrderESaIS7_IS8_SB_EEEESt10_Select1stISG_ESC_SaISG_EED2Ev
                0x0000000000000000        0x0 /usr/lib/crt1.o
 .rel.text._ZNSt8_Rb_treeIN15CSimpleIniTemplIc16SI_GenericNoCaseIcE11SI_ConvertAIcEE5EntryESt4pairIKS6_St8multimapIS6_PKcNS6_8KeyOrderESaIS7_IS8_SB_EEEESt10_Select1stISG_ESC_SaISG_EE5clearEv
                0x0000000000000000        0x0 /usr/lib/crt1.o
 .rel.text._ZNSt8_Rb_treeIN15CSimpleIniTemplIc16SI_GenericNoCaseIcE11SI_ConvertAIcEE5EntryESt4pairIKS6_St8multimapIS6_PKcNS6_8KeyOrderESaIS7_IS8_SB_EEEESt10_Select1stISG_ESC_SaISG_EE5eraseESt17_Rb_tree_iteratorISG_E
                0x0000000000000000        0x0 /usr/lib/crt1.o
 .rel.text._ZNSt8_Rb_treeIN15CSimpleIniTemplIc16SI_GenericNoCaseIcE11SI_ConvertAIcEE5EntryESt4pairIKS6_St8multimapIS6_PKcNS6_8KeyOrderESaIS7_IS8_SB_EEEESt10_Select1stISG_ESC_SaISG_EE5eraseESt17_Rb_tree_iteratorISG_ESM_
                0x0000000000000000        0x0 /usr/lib/crt1.o
 .rel.text._ZN15CSimpleIniTemplIc16SI_GenericNoCaseIcE11SI_ConvertAIcEE5ResetEv
                0x0000000000000000        0x0 /usr/lib/crt1.o
 .rel.text._ZN15CSimpleIniTemplIc16SI_GenericNoCaseIcE11SI_ConvertAIcEED2Ev
                0x0000000000000000        0x0 /usr/lib/crt1.o
 .rel.text._ZNSt8_Rb_treeIN15CSimpleIniTemplIc16SI_GenericNoCaseIcE11SI_ConvertAIcEE5EntryESt4pairIKS6_PKcESt10_Select1stISB_ENS6_8KeyOrderESaISB_EE4findERS8_
                0x0000000000000000        0x0 /usr/lib/crt1.o
 .rel.text._ZNSt8_Rb_treeIN15CSimpleIniTemplIc16SI_GenericNoCaseIcE11SI_ConvertAIcEE5EntryESt4pairIKS6_PKcESt10_Select1stISB_ENS6_8KeyOrderESaISB_EE13_Rb_tree_implISE_Lb0EEC2Ev
                0x0000000000000000        0x0 /usr/lib/crt1.o
 .rel.text._ZNSt8_Rb_treeIN15CSimpleIniTemplIc16SI_GenericNoCaseIcE11SI_ConvertAIcEE5EntryESt4pairIKS6_PKcESt10_Select1stISB_ENS6_8KeyOrderESaISB_EE10_M_insert_EPKSt18_Rb_tree_node_baseSJ_RKSB_
                0x0000000000000000        0x0 /usr/lib/crt1.o
 .rel.text._ZNSt8_Rb_treeIN15CSimpleIniTemplIc16SI_GenericNoCaseIcE11SI_ConvertAIcEE5EntryESt4pairIKS6_PKcESt10_Select1stISB_ENS6_8KeyOrderESaISB_EE15_M_insert_equalERKSB_
                0x0000000000000000        0x0 /usr/lib/crt1.o
 .rel.text._ZNSt8_Rb_treeIN15CSimpleIniTemplIc16SI_GenericNoCaseIcE11SI_ConvertAIcEE5EntryESt4pairIKS6_PKcESt10_Select1stISB_ENS6_8KeyOrderESaISB_EE7_M_copyEPKSt13_Rb_tree_nodeISB_EPSI_
                0x0000000000000000        0x0 /usr/lib/crt1.o
 .rel.text._ZNSt8_Rb_treeIN15CSimpleIniTemplIc16SI_GenericNoCaseIcE11SI_ConvertAIcEE5EntryESt4pairIKS6_PKcESt10_Select1stISB_ENS6_8KeyOrderESaISB_EEC2ERKSG_
                0x0000000000000000        0x0 /usr/lib/crt1.o
 .rel.text._ZNSt8_Rb_treeIN15CSimpleIniTemplIc16SI_GenericNoCaseIcE11SI_ConvertAIcEE5EntryESt4pairIKS6_St8multimapIS6_PKcNS6_8KeyOrderESaIS7_IS8_SB_EEEESt10_Select1stISG_ESC_SaISG_EE10_M_insert_EPKSt18_Rb_tree_node_baseSN_RKSG_
                0x0000000000000000        0x0 /usr/lib/crt1.o
 .rel.text._ZNSt8_Rb_treeIN15CSimpleIniTemplIc16SI_GenericNoCaseIcE11SI_ConvertAIcEE5EntryESt4pairIKS6_St8multimapIS6_PKcNS6_8KeyOrderESaIS7_IS8_SB_EEEESt10_Select1stISG_ESC_SaISG_EE16_M_insert_uniqueERKSG_
                0x0000000000000000        0x0 /usr/lib/crt1.o
 .rel.text._ZN15CSimpleIniTemplIc16SI_GenericNoCaseIcE11SI_ConvertAIcEE8AddEntryEPKcS6_S6_S6_b
                0x0000000000000000        0x0 /usr/lib/crt1.o
 .rel.text._ZN15CSimpleIniTemplIc16SI_GenericNoCaseIcE11SI_ConvertAIcEE4LoadEPKcj
                0x0000000000000000        0x0 /usr/lib/crt1.o
 .rel.text._ZN15CSimpleIniTemplIc16SI_GenericNoCaseIcE11SI_ConvertAIcEE8LoadFileEP8_IO_FILE
                0x0000000000000000        0x0 /usr/lib/crt1.o
 .rel.text._ZN15CSimpleIniTemplIc16SI_GenericNoCaseIcE11SI_ConvertAIcEE8LoadFileEPKc
                0x0000000000000000        0x0 /usr/lib/crt1.o
 .rel.text._ZNSt6vectorIP18FT_BitmapGlyphRec_SaIS1_EED2Ev
                0x0000000000000000        0x0 /usr/lib/crt1.o
 .rel.text._ZNSt8_Rb_treeISsSt4pairIKSsP11FT_FaceRec_ESt10_Select1stIS4_ESt4lessISsESaIS4_EE13_Rb_tree_implIS8_Lb0EEC2Ev
                0x0000000000000000        0x0 /usr/lib/crt1.o
 .rel.text._ZNSt8_Rb_treeISsSt4pairIKSsP11FT_FaceRec_ESt10_Select1stIS4_ESt4lessISsESaIS4_EE8_M_eraseEPSt13_Rb_tree_nodeIS4_E
                0x0000000000000000        0x0 /usr/lib/crt1.o
 .rel.text._ZNSt8_Rb_treeISsSt4pairIKSsP11FT_FaceRec_ESt10_Select1stIS4_ESt4lessISsESaIS4_EED2Ev
                0x0000000000000000        0x0 /usr/lib/crt1.o
 .rel.text._ZNSt3mapISsP11FT_FaceRec_St4lessISsESaISt4pairIKSsS1_EEED2Ev
                0x0000000000000000        0x0 /usr/lib/crt1.o
 .rel.text._ZNKSt6vectorIP18FT_BitmapGlyphRec_SaIS1_EE12_M_check_lenEjPKc
                0x0000000000000000        0x0 /usr/lib/crt1.o
 .rel.text._ZStltIcSt11char_traitsIcESaIcEEbRKSbIT_T0_T1_ES8_
                0x0000000000000000        0x0 /usr/lib/crt1.o
 .rel.text._ZNKSt8_Rb_treeISsSt4pairIKSsP11FT_FaceRec_ESt10_Select1stIS4_ESt4lessISsESaIS4_EE4findERS1_
                0x0000000000000000        0x0 /usr/lib/crt1.o
 .rel.text._ZNKSt3mapISsP11FT_FaceRec_St4lessISsESaISt4pairIKSsS1_EEE5countERS5_
                0x0000000000000000        0x0 /usr/lib/crt1.o
 .rel.text._ZNSt8_Rb_treeISsSt4pairIKSsP11FT_FaceRec_ESt10_Select1stIS4_ESt4lessISsESaIS4_EE11lower_boundERS1_
                0x0000000000000000        0x0 /usr/lib/crt1.o
 .rel.text._ZNSt8_Rb_treeISsSt4pairIKSsP11FT_FaceRec_ESt10_Select1stIS4_ESt4lessISsESaIS4_EE10_M_insert_EPKSt18_Rb_tree_node_baseSD_RKS4_
                0x0000000000000000        0x0 /usr/lib/crt1.o
 .rel.text._ZNSt8_Rb_treeISsSt4pairIKSsP11FT_FaceRec_ESt10_Select1stIS4_ESt4lessISsESaIS4_EE16_M_insert_uniqueERKS4_
                0x0000000000000000        0x0 /usr/lib/crt1.o
 .rel.text._ZNSt8_Rb_treeISsSt4pairIKSsP11FT_FaceRec_ESt10_Select1stIS4_ESt4lessISsESaIS4_EE17_M_insert_unique_ESt23_Rb_tree_const_iteratorIS4_ERKS4_
                0x0000000000000000        0x0 /usr/lib/crt1.o
 .rel.text._ZNSt3mapISsP11FT_FaceRec_St4lessISsESaISt4pairIKSsS1_EEE6insertESt17_Rb_tree_iteratorIS6_ERKS6_
                0x0000000000000000        0x0 /usr/lib/crt1.o
 .rel.text._ZNSt3mapISsP11FT_FaceRec_St4lessISsESaISt4pairIKSsS1_EEEixERS5_
                0x0000000000000000        0x0 /usr/lib/crt1.o
 .rel.text._ZNSt20__copy_move_backwardILb0ELb1ESt26random_access_iterator_tagE13__copy_move_bIP18FT_BitmapGlyphRec_EEPT_PKS5_S8_S6_
                0x0000000000000000        0x0 /usr/lib/crt1.o
 .rel.text._ZNSt11__copy_moveILb0ELb1ESt26random_access_iterator_tagE8__copy_mIP18FT_BitmapGlyphRec_EEPT_PKS5_S8_S6_
                0x0000000000000000        0x0 /usr/lib/crt1.o
 .rel.text._ZNSt6vectorIP18FT_BitmapGlyphRec_SaIS1_EE13_M_insert_auxEN9__gnu_cxx17__normal_iteratorIPS1_S3_EERKS1_
                0x0000000000000000        0x0 /usr/lib/crt1.o
 .rel.text._ZNSt6vectorIP18FT_BitmapGlyphRec_SaIS1_EE9push_backERKS1_
                0x0000000000000000        0x0 /usr/lib/crt1.o
 .rel.text._ZNSt6vectorIN7Tilemap8TileDataESaIS1_EED2Ev
                0x0000000000000000        0x0 /usr/lib/crt1.o
 .rel.text._ZNKSt8_Rb_treeImSt4pairIKmSt3mapIiS2_IiP6BitmapSt4lessIiESaIS0_IKiS4_EEES6_SaIS0_IS7_SA_EEEESt10_Select1stISE_ES5_ImESaISE_EE4findERS1_
                0x0000000000000000        0x0 /usr/lib/crt1.o
 .rel.text._ZNKSt3mapImS_IiS_IiP6BitmapSt4lessIiESaISt4pairIKiS1_EEES3_SaIS4_IS5_S8_EEES2_ImESaIS4_IKmSB_EEE5countERSD_
                0x0000000000000000        0x0 /usr/lib/crt1.o
 .rel.text._ZNKSt8_Rb_treeIiSt4pairIKiSt3mapIiP6BitmapSt4lessIiESaIS0_IS1_S4_EEEESt10_Select1stISA_ES6_SaISA_EE4findERS1_
                0x0000000000000000        0x0 /usr/lib/crt1.o
 .rel.text._ZNKSt3mapIiS_IiP6BitmapSt4lessIiESaISt4pairIKiS1_EEES3_SaIS4_IS5_S8_EEE5countERS5_
                0x0000000000000000        0x0 /usr/lib/crt1.o
 .rel.text._ZNKSt8_Rb_treeIiSt4pairIKiP6BitmapESt10_Select1stIS4_ESt4lessIiESaIS4_EE4findERS1_
                0x0000000000000000        0x0 /usr/lib/crt1.o
 .rel.text._ZNKSt3mapIiP6BitmapSt4lessIiESaISt4pairIKiS1_EEE5countERS5_
                0x0000000000000000        0x0 /usr/lib/crt1.o
 .rel.text._ZNSt8_Rb_treeImSt4pairIKmSt3mapIiS2_IiP6BitmapSt4lessIiESaIS0_IKiS4_EEES6_SaIS0_IS7_SA_EEEESt10_Select1stISE_ES5_ImESaISE_EE13_Rb_tree_implISH_Lb0EEC2Ev
                0x0000000000000000        0x0 /usr/lib/crt1.o
 .rel.text._ZNSt8_Rb_treeImSt4pairIKmSt3mapIiS2_IiP6BitmapSt4lessIiESaIS0_IKiS4_EEES6_SaIS0_IS7_SA_EEEESt10_Select1stISE_ES5_ImESaISE_EE11lower_boundERS1_
                0x0000000000000000        0x0 /usr/lib/crt1.o
 .rel.text._ZNSt8_Rb_treeIiSt4pairIKiSt3mapIiP6BitmapSt4lessIiESaIS0_IS1_S4_EEEESt10_Select1stISA_ES6_SaISA_EE11lower_boundERS1_
                0x0000000000000000        0x0 /usr/lib/crt1.o
 .rel.text._ZNSt8_Rb_treeIiSt4pairIKiP6BitmapESt10_Select1stIS4_ESt4lessIiESaIS4_EE8_M_eraseEPSt13_Rb_tree_nodeIS4_E
                0x0000000000000000        0x0 /usr/lib/crt1.o
 .rel.text._ZNSt8_Rb_treeIiSt4pairIKiP6BitmapESt10_Select1stIS4_ESt4lessIiESaIS4_EED2Ev
                0x0000000000000000        0x0 /usr/lib/crt1.o
 .rel.text._ZNSt8_Rb_treeIiSt4pairIKiSt3mapIiP6BitmapSt4lessIiESaIS0_IS1_S4_EEEESt10_Select1stISA_ES6_SaISA_EE8_M_eraseEPSt13_Rb_tree_nodeISA_E
                0x0000000000000000        0x0 /usr/lib/crt1.o
 .rel.text._ZNSt8_Rb_treeIiSt4pairIKiSt3mapIiP6BitmapSt4lessIiESaIS0_IS1_S4_EEEESt10_Select1stISA_ES6_SaISA_EED2Ev
                0x0000000000000000        0x0 /usr/lib/crt1.o
 .rel.text._ZNSt8_Rb_treeImSt4pairIKmSt3mapIiS2_IiP6BitmapSt4lessIiESaIS0_IKiS4_EEES6_SaIS0_IS7_SA_EEEESt10_Select1stISE_ES5_ImESaISE_EE8_M_eraseEPSt13_Rb_tree_nodeISE_E
                0x0000000000000000        0x0 /usr/lib/crt1.o
 .rel.text._ZNSt8_Rb_treeImSt4pairIKmSt3mapIiS2_IiP6BitmapSt4lessIiESaIS0_IKiS4_EEES6_SaIS0_IS7_SA_EEEESt10_Select1stISE_ES5_ImESaISE_EED2Ev
                0x0000000000000000        0x0 /usr/lib/crt1.o
 .rel.text._ZNSt8_Rb_treeIiSt4pairIKiP6BitmapESt10_Select1stIS4_ESt4lessIiESaIS4_EE11lower_boundERS1_
                0x0000000000000000        0x0 /usr/lib/crt1.o
 .rel.text._ZNSt8_Rb_treeIiSt4pairIKiSt3mapIiP6BitmapSt4lessIiESaIS0_IS1_S4_EEEESt10_Select1stISA_ES6_SaISA_EE13_Rb_tree_implIS6_Lb0EEC2Ev
                0x0000000000000000        0x0 /usr/lib/crt1.o
 .rel.text._ZNSt8_Rb_treeIiSt4pairIKiP6BitmapESt10_Select1stIS4_ESt4lessIiESaIS4_EE13_Rb_tree_implIS8_Lb0EEC2Ev
                0x0000000000000000        0x0 /usr/lib/crt1.o
 .rel.text._ZNSt8_Rb_treeIiSt4pairIKiP6BitmapESt10_Select1stIS4_ESt4lessIiESaIS4_EE10_M_insert_EPKSt18_Rb_tree_node_baseSD_RKS4_
                0x0000000000000000        0x0 /usr/lib/crt1.o
 .rel.text._ZNSt8_Rb_treeIiSt4pairIKiP6BitmapESt10_Select1stIS4_ESt4lessIiESaIS4_EE16_M_insert_uniqueERKS4_
                0x0000000000000000        0x0 /usr/lib/crt1.o
 .rel.text._ZNSt8_Rb_treeIiSt4pairIKiP6BitmapESt10_Select1stIS4_ESt4lessIiESaIS4_EE17_M_insert_unique_ESt23_Rb_tree_const_iteratorIS4_ERKS4_
                0x0000000000000000        0x0 /usr/lib/crt1.o
 .rel.text._ZNSt3mapIiP6BitmapSt4lessIiESaISt4pairIKiS1_EEE6insertESt17_Rb_tree_iteratorIS6_ERKS6_
                0x0000000000000000        0x0 /usr/lib/crt1.o
 .rel.text._ZNSt3mapIiP6BitmapSt4lessIiESaISt4pairIKiS1_EEEixERS5_
                0x0000000000000000        0x0 /usr/lib/crt1.o
 .rel.text._ZNSt12_Destroy_auxILb0EE9__destroyIPSt6vectorIN7Tilemap8TileDataESaIS4_EEEEvT_S8_
                0x0000000000000000        0x0 /usr/lib/crt1.o
 .rel.text._ZNSt6vectorIS_IN7Tilemap8TileDataESaIS1_EESaIS3_EED2Ev
                0x0000000000000000        0x0 /usr/lib/crt1.o
 .rel.text._ZNSt12_Destroy_auxILb0EE9__destroyIPSt6vectorIS2_IN7Tilemap8TileDataESaIS4_EESaIS6_EEEEvT_SA_
                0x0000000000000000        0x0 /usr/lib/crt1.o
 .rel.text._ZNSt6vectorIS_IS_IN7Tilemap8TileDataESaIS1_EESaIS3_EESaIS5_EED2Ev
                0x0000000000000000        0x0 /usr/lib/crt1.o
 .rel.text._ZNKSt6vectorIS_IS_IN7Tilemap8TileDataESaIS1_EESaIS3_EESaIS5_EE12_M_check_lenEjPKc
                0x0000000000000000        0x0 /usr/lib/crt1.o
 .rel.text._ZNKSt6vectorIS_IN7Tilemap8TileDataESaIS1_EESaIS3_EE12_M_check_lenEjPKc
                0x0000000000000000        0x0 /usr/lib/crt1.o
 .rel.text._ZNKSt6vectorIN7Tilemap8TileDataESaIS1_EE12_M_check_lenEjPKc
                0x0000000000000000        0x0 /usr/lib/crt1.o
 .rel.text._ZNSt8_Rb_treeIiSt4pairIKiP6BitmapESt10_Select1stIS4_ESt4lessIiESaIS4_EE7_M_copyEPKSt13_Rb_tree_nodeIS4_EPSC_
                0x0000000000000000        0x0 /usr/lib/crt1.o
 .rel.text._ZNSt8_Rb_treeIiSt4pairIKiP6BitmapESt10_Select1stIS4_ESt4lessIiESaIS4_EEC2ERKSA_
                0x0000000000000000        0x0 /usr/lib/crt1.o
 .rel.text._ZNSt8_Rb_treeIiSt4pairIKiSt3mapIiP6BitmapSt4lessIiESaIS0_IS1_S4_EEEESt10_Select1stISA_ES6_SaISA_EE7_M_copyEPKSt13_Rb_tree_nodeISA_EPSG_
                0x0000000000000000        0x0 /usr/lib/crt1.o
 .rel.text._ZNSt8_Rb_treeIiSt4pairIKiSt3mapIiP6BitmapSt4lessIiESaIS0_IS1_S4_EEEESt10_Select1stISA_ES6_SaISA_EEC2ERKSE_
                0x0000000000000000        0x0 /usr/lib/crt1.o
 .rel.text._ZNSt8_Rb_treeImSt4pairIKmSt3mapIiS2_IiP6BitmapSt4lessIiESaIS0_IKiS4_EEES6_SaIS0_IS7_SA_EEEESt10_Select1stISE_ES5_ImESaISE_EE10_M_insert_EPKSt18_Rb_tree_node_baseSM_RKSE_
                0x0000000000000000        0x0 /usr/lib/crt1.o
 .rel.text._ZNSt8_Rb_treeImSt4pairIKmSt3mapIiS2_IiP6BitmapSt4lessIiESaIS0_IKiS4_EEES6_SaIS0_IS7_SA_EEEESt10_Select1stISE_ES5_ImESaISE_EE16_M_insert_uniqueERKSE_
                0x0000000000000000        0x0 /usr/lib/crt1.o
 .rel.text._ZNSt8_Rb_treeImSt4pairIKmSt3mapIiS2_IiP6BitmapSt4lessIiESaIS0_IKiS4_EEES6_SaIS0_IS7_SA_EEEESt10_Select1stISE_ES5_ImESaISE_EE17_M_insert_unique_ESt23_Rb_tree_const_iteratorISE_ERKSE_
                0x0000000000000000        0x0 /usr/lib/crt1.o
 .rel.text._ZNSt3mapImS_IiS_IiP6BitmapSt4lessIiESaISt4pairIKiS1_EEES3_SaIS4_IS5_S8_EEES2_ImESaIS4_IKmSB_EEE6insertESt17_Rb_tree_iteratorISE_ERKSE_
                0x0000000000000000        0x0 /usr/lib/crt1.o
 .rel.text._ZNSt3mapImS_IiS_IiP6BitmapSt4lessIiESaISt4pairIKiS1_EEES3_SaIS4_IS5_S8_EEES2_ImESaIS4_IKmSB_EEEixERSD_
                0x0000000000000000        0x0 /usr/lib/crt1.o
 .rel.text._ZNSt8_Rb_treeIiSt4pairIKiSt3mapIiP6BitmapSt4lessIiESaIS0_IS1_S4_EEEESt10_Select1stISA_ES6_SaISA_EE10_M_insert_EPKSt18_Rb_tree_node_baseSH_RKSA_
                0x0000000000000000        0x0 /usr/lib/crt1.o
 .rel.text._ZNSt8_Rb_treeIiSt4pairIKiSt3mapIiP6BitmapSt4lessIiESaIS0_IS1_S4_EEEESt10_Select1stISA_ES6_SaISA_EE16_M_insert_uniqueERKSA_
                0x0000000000000000        0x0 /usr/lib/crt1.o
 .rel.text._ZNSt8_Rb_treeIiSt4pairIKiSt3mapIiP6BitmapSt4lessIiESaIS0_IS1_S4_EEEESt10_Select1stISA_ES6_SaISA_EE17_M_insert_unique_ESt23_Rb_tree_const_iteratorISA_ERKSA_
                0x0000000000000000        0x0 /usr/lib/crt1.o
 .rel.text._ZNSt3mapIiS_IiP6BitmapSt4lessIiESaISt4pairIKiS1_EEES3_SaIS4_IS5_S8_EEE6insertESt17_Rb_tree_iteratorIS9_ERKS9_
                0x0000000000000000        0x0 /usr/lib/crt1.o
 .rel.text._ZNSt3mapIiS_IiP6BitmapSt4lessIiESaISt4pairIKiS1_EEES3_SaIS4_IS5_S8_EEEixERS5_
                0x0000000000000000        0x0 /usr/lib/crt1.o
 .rel.text._ZSt8__fill_aIPN7Tilemap8TileDataES1_EN9__gnu_cxx11__enable_ifIXntsrSt11__is_scalarIT0_E7__valueEvE6__typeET_SA_RKS6_
                0x0000000000000000        0x0 /usr/lib/crt1.o
 .rel.text._ZNSt20__copy_move_backwardILb0ELb1ESt26random_access_iterator_tagE13__copy_move_bIN7Tilemap8TileDataEEEPT_PKS5_S8_S6_
                0x0000000000000000        0x0 /usr/lib/crt1.o
 .rel.text._ZNSt11__copy_moveILb0ELb1ESt26random_access_iterator_tagE8__copy_mIN7Tilemap8TileDataEEEPT_PKS5_S8_S6_
                0x0000000000000000        0x0 /usr/lib/crt1.o
 .rel.text._ZNSt6vectorIN7Tilemap8TileDataESaIS1_EEC2ERKS3_
                0x0000000000000000        0x0 /usr/lib/crt1.o
 .rel.text._ZSt10_ConstructISt6vectorIN7Tilemap8TileDataESaIS2_EES4_EvPT_RKT0_
                0x0000000000000000        0x0 /usr/lib/crt1.o
 .rel.text._ZNSt20__uninitialized_copyILb0EE18uninitialized_copyIN9__gnu_cxx17__normal_iteratorIPKSt6vectorIN7Tilemap8TileDataESaIS6_EES4_IS8_SaIS8_EEEEPS8_EET0_T_SG_SF_
                0x0000000000000000        0x0 /usr/lib/crt1.o
 .rel.text._ZNSt6vectorIS_IN7Tilemap8TileDataESaIS1_EESaIS3_EEC2ERKS5_
                0x0000000000000000        0x0 /usr/lib/crt1.o
 .rel.text._ZSt10_ConstructISt6vectorIS0_IN7Tilemap8TileDataESaIS2_EESaIS4_EES6_EvPT_RKT0_
                0x0000000000000000        0x0 /usr/lib/crt1.o
 .rel.text._ZNSt22__uninitialized_fill_nILb0EE20uninitialized_fill_nIPSt6vectorIS2_IN7Tilemap8TileDataESaIS4_EESaIS6_EEjS8_EEvT_T0_RKT1_
                0x0000000000000000        0x0 /usr/lib/crt1.o
 .rel.text._ZNSt20__uninitialized_copyILb0EE18uninitialized_copyIPSt6vectorIS2_IN7Tilemap8TileDataESaIS4_EESaIS6_EES9_EET0_T_SB_SA_
                0x0000000000000000        0x0 /usr/lib/crt1.o
 .rel.text._ZNSt20__uninitialized_copyILb0EE18uninitialized_copyIPSt6vectorIN7Tilemap8TileDataESaIS4_EES7_EET0_T_S9_S8_
                0x0000000000000000        0x0 /usr/lib/crt1.o
 .rel.text._ZNSt22__uninitialized_fill_nILb0EE20uninitialized_fill_nIPSt6vectorIN7Tilemap8TileDataESaIS4_EEjS6_EEvT_T0_RKT1_
                0x0000000000000000        0x0 /usr/lib/crt1.o
 .rel.text._ZNSt6vectorIN7Tilemap8TileDataESaIS1_EEaSERKS3_
                0x0000000000000000        0x0 /usr/lib/crt1.o
 .rel.text._ZNSt20__copy_move_backwardILb0ELb0ESt26random_access_iterator_tagE13__copy_move_bIPSt6vectorIN7Tilemap8TileDataESaIS5_EES8_EET0_T_SA_S9_
                0x0000000000000000        0x0 /usr/lib/crt1.o
 .rel.text._ZSt8__fill_aIPSt6vectorIN7Tilemap8TileDataESaIS2_EES4_EN9__gnu_cxx11__enable_ifIXntsrSt11__is_scalarIT0_E7__valueEvE6__typeET_SD_RKS9_
                0x0000000000000000        0x0 /usr/lib/crt1.o
 .rel.text._ZNSt6vectorIS_IN7Tilemap8TileDataESaIS1_EESaIS3_EE14_M_fill_insertEN9__gnu_cxx17__normal_iteratorIPS3_S5_EEjRKS3_
                0x0000000000000000        0x0 /usr/lib/crt1.o
 .rel.text._ZNSt6vectorIS_IN7Tilemap8TileDataESaIS1_EESaIS3_EE6resizeEjS3_
                0x0000000000000000        0x0 /usr/lib/crt1.o
 .rel.text._ZSt10__fill_n_aIPN7Tilemap8TileDataEjS1_EN9__gnu_cxx11__enable_ifIXntsrSt11__is_scalarIT1_E7__valueET_E6__typeES8_T0_RKS6_
                0x0000000000000000        0x0 /usr/lib/crt1.o
 .rel.text._ZNSt22__uninitialized_fill_nILb1EE20uninitialized_fill_nIPN7Tilemap8TileDataEjS3_EEvT_T0_RKT1_
                0x0000000000000000        0x0 /usr/lib/crt1.o
 .rel.text._ZNSt6vectorIN7Tilemap8TileDataESaIS1_EE14_M_fill_insertEN9__gnu_cxx17__normal_iteratorIPS1_S3_EEjRKS1_
                0x0000000000000000        0x0 /usr/lib/crt1.o
 .rel.text._ZNSt6vectorIN7Tilemap8TileDataESaIS1_EE6resizeEjS1_
                0x0000000000000000        0x0 /usr/lib/crt1.o
 .rel.text._ZNSt12_Destroy_auxILb0EE9__destroyIN9__gnu_cxx17__normal_iteratorIPSt6vectorIN7Tilemap8TileDataESaIS6_EES4_IS8_SaIS8_EEEEEEvT_SD_
                0x0000000000000000        0x0 /usr/lib/crt1.o
 .rel.text._ZNSt11__copy_moveILb0ELb0ESt26random_access_iterator_tagE8__copy_mIPKSt6vectorIN7Tilemap8TileDataESaIS5_EEPS7_EET0_T_SC_SB_
                0x0000000000000000        0x0 /usr/lib/crt1.o
 .rel.text._ZNSt11__copy_moveILb0ELb0ESt26random_access_iterator_tagE8__copy_mIPSt6vectorIN7Tilemap8TileDataESaIS5_EES8_EET0_T_SA_S9_
                0x0000000000000000        0x0 /usr/lib/crt1.o
 .rel.text._ZNSt6vectorIS_IN7Tilemap8TileDataESaIS1_EESaIS3_EEaSERKS5_
                0x0000000000000000        0x0 /usr/lib/crt1.o
 .rel.text._ZNSt20__copy_move_backwardILb0ELb0ESt26random_access_iterator_tagE13__copy_move_bIPSt6vectorIS3_IN7Tilemap8TileDataESaIS5_EESaIS7_EESA_EET0_T_SC_SB_
                0x0000000000000000        0x0 /usr/lib/crt1.o
 .rel.text._ZSt8__fill_aIPSt6vectorIS0_IN7Tilemap8TileDataESaIS2_EESaIS4_EES6_EN9__gnu_cxx11__enable_ifIXntsrSt11__is_scalarIT0_E7__valueEvE6__typeET_SF_RKSB_
                0x0000000000000000        0x0 /usr/lib/crt1.o
 .rel.text._ZNSt6vectorIS_IS_IN7Tilemap8TileDataESaIS1_EESaIS3_EESaIS5_EE14_M_fill_insertEN9__gnu_cxx17__normal_iteratorIPS5_S7_EEjRKS5_
                0x0000000000000000        0x0 /usr/lib/crt1.o
 .rel.text._ZNSt6vectorIS_IS_IN7Tilemap8TileDataESaIS1_EESaIS3_EESaIS5_EE6resizeEjS5_
                0x0000000000000000        0x0 /usr/lib/crt1.o
 .rel.text._ZNK6QFlagsIN2Qt16KeyboardModifierEEanES1_
                0x0000000000000000        0x0 /usr/lib/crt1.o
 .rel.text._ZNK6QFlagsIN2Qt11MouseButtonEEanES1_
                0x0000000000000000        0x0 /usr/lib/crt1.o
 .rel.text._ZNSt11_Deque_baseI5EventSaIS0_EED2Ev
                0x0000000000000000        0x0 /usr/lib/crt1.o
 .rel.text._ZNSt11_Deque_baseI5EventSaIS0_EE17_M_initialize_mapEj
                0x0000000000000000        0x0 /usr/lib/crt1.o
 .rel.text._ZNSt11_Deque_baseI5EventSaIS0_EEC2Ev
                0x0000000000000000        0x0 /usr/lib/crt1.o
 .rel.text._ZNSt5dequeI5EventSaIS0_EE16_M_pop_front_auxEv
                0x0000000000000000        0x0 /usr/lib/crt1.o
 .rel.text._ZNSt5dequeI5EventSaIS0_EE9pop_frontEv
                0x0000000000000000        0x0 /usr/lib/crt1.o
 .rel.text._ZStmiI5EventRS0_PS0_ENSt15_Deque_iteratorIT_T0_T1_E15difference_typeERKS7_SA_
                0x0000000000000000        0x0 /usr/lib/crt1.o
 .rel.text._ZNKSt5dequeI5EventSaIS0_EE4sizeEv
                0x0000000000000000        0x0 /usr/lib/crt1.o
 .rel.text._ZNSt15_Deque_iteratorI5EventRS0_PS0_EppEv
                0x0000000000000000        0x0 /usr/lib/crt1.o
 .rel.text._ZNSt15_Deque_iteratorI5EventRKS0_PS1_EppEv
                0x0000000000000000        0x0 /usr/lib/crt1.o
 .rel.text._ZSt10_ConstructI5EventS0_EvPT_RKT0_
                0x0000000000000000        0x0 /usr/lib/crt1.o
 .rel.text._ZNSt5dequeI5EventSaIS0_EEC2ERKS2_
                0x0000000000000000        0x0 /usr/lib/crt1.o
 .rel.text._ZNSt11__copy_moveILb0ELb1ESt26random_access_iterator_tagE8__copy_mIP5EventEEPT_PKS5_S8_S6_
                0x0000000000000000        0x0 /usr/lib/crt1.o
 .rel.text._ZNSt20__copy_move_backwardILb0ELb1ESt26random_access_iterator_tagE13__copy_move_bIP5EventEEPT_PKS5_S8_S6_
                0x0000000000000000        0x0 /usr/lib/crt1.o
 .rel.text._ZNSt5dequeI5EventSaIS0_EE17_M_reallocate_mapEjb
                0x0000000000000000        0x0 /usr/lib/crt1.o
 .rel.text._ZNSt5dequeI5EventSaIS0_EE22_M_reserve_map_at_backEj
                0x0000000000000000        0x0 /usr/lib/crt1.o
 .rel.text._ZNSt5dequeI5EventSaIS0_EE16_M_push_back_auxERKS0_
                0x0000000000000000        0x0 /usr/lib/crt1.o
 .rel.text._ZNSt5dequeI5EventSaIS0_EE9push_backERKS0_
                0x0000000000000000        0x0 /usr/lib/crt1.o
 *(.rel.fini)
 *(.rel.rodata .rel.rodata.* .rel.gnu.linkonce.r.*)
 .rel.rodata._ZTV10MainThread
                0x0000000000000000        0x0 /usr/lib/crt1.o
 .rel.rodata._ZTI10MainThread
                0x0000000000000000        0x0 /usr/lib/crt1.o
 .rel.rodata._ZTV5Plane
                0x0000000000000000        0x0 /usr/lib/crt1.o
 .rel.rodata._ZTI5Plane
                0x0000000000000000        0x0 /usr/lib/crt1.o
 .rel.rodata._ZTV8Drawable
                0x0000000000000000        0x0 /usr/lib/crt1.o
 .rel.rodata._ZTI8Drawable
                0x0000000000000000        0x0 /usr/lib/crt1.o
 .rel.rodata._ZTV6Sprite
                0x0000000000000000        0x0 /usr/lib/crt1.o
 .rel.rodata._ZTI6Sprite
                0x0000000000000000        0x0 /usr/lib/crt1.o
 .rel.rodata._ZTV7Tilemap
                0x0000000000000000        0x0 /usr/lib/crt1.o
 .rel.rodata._ZTI7Tilemap
                0x0000000000000000        0x0 /usr/lib/crt1.o
 .rel.rodata._ZTV8Viewport
                0x0000000000000000        0x0 /usr/lib/crt1.o
 .rel.rodata._ZTI8Viewport
                0x0000000000000000        0x0 /usr/lib/crt1.o
 .rel.rodata._ZTV6Window
                0x0000000000000000        0x0 /usr/lib/crt1.o
 .rel.rodata._ZTI6Window
                0x0000000000000000        0x0 /usr/lib/crt1.o
 .rel.rodata._ZTV8WindowUi
                0x0000000000000000        0x0 /usr/lib/crt1.o
 .rel.rodata._ZTI8WindowUi
                0x0000000000000000        0x0 /usr/lib/crt1.o
 *(.rel.data.rel.ro* .rel.gnu.linkonce.d.rel.ro.*)
 *(.rel.data .rel.data.* .rel.gnu.linkonce.d.*)
 *(.rel.tdata .rel.tdata.* .rel.gnu.linkonce.td.*)
 *(.rel.tbss .rel.tbss.* .rel.gnu.linkonce.tb.*)
 *(.rel.ctors)
 *(.rel.dtors)
 *(.rel.got)
 .rel.got       0x000000000804c440        0x8 /usr/lib/crt1.o
 *(.rel.bss .rel.bss.* .rel.gnu.linkonce.b.*)
 .rel.bss       0x000000000804c448       0xb8 /usr/lib/crt1.o
 *(.rel.ifunc)
 .rel.eh_frame  0x0000000000000000        0x0 /usr/lib/crt1.o

.rel.plt        0x000000000804c500      0xa30
 *(.rel.plt)
 .rel.plt       0x000000000804c500      0xa30 /usr/lib/crt1.o
                0x000000000804cf30                PROVIDE (__rel_iplt_start, .)
 *(.rel.iplt)
 .rel.iplt      0x0000000000000000        0x0 /usr/lib/crt1.o
                0x000000000804cf30                PROVIDE (__rel_iplt_end, .)

.init           0x000000000804cf30       0x30
 *(.init)
 .init          0x000000000804cf30       0x22 /usr/lib/crti.o
                0x000000000804cf30                _init
 .init          0x000000000804cf52        0x5 /usr/local/lib/gcc/i686-pc-linux-gnu/4.5.0/crtbegin.o
 .init          0x000000000804cf57        0x5 /usr/local/lib/gcc/i686-pc-linux-gnu/4.5.0/crtend.o
 .init          0x000000000804cf5c        0x4 /usr/lib/crtn.o

.plt            0x000000000804cf60     0x1470
 *(.plt)
 .plt           0x000000000804cf60     0x1470 /usr/lib/crt1.o
                0x000000000804cf70                Mix_FadeInMusic
                0x000000000804cf80                _ZThn8_NK7QWidget7devTypeEv
                0x000000000804cf90                _ZN7QWidget22windowActivationChangeEb
                0x000000000804cfa0                rb_io_close
                0x000000000804cfb0                _ZNSt14basic_ifstreamIcSt11char_traitsIcEED1Ev@@GLIBCXX_3.4
                0x000000000804cfc0                __libc_start_main@@GLIBC_2.0
                0x000000000804cfd0                rb_define_attr
                0x000000000804cfe0                __cxa_begin_catch@@CXXABI_1.3
                0x000000000804cff0                _ZN12QApplicationD1Ev
                0x000000000804d000                listen@@GLIBC_2.0
                0x000000000804d010                glClearDepth
                0x000000000804d020                _ZN7QWidget13dragMoveEventEP14QDragMoveEvent
                0x000000000804d030                _ZNSsC1ERKSs@@GLIBCXX_3.4
                0x000000000804d040                _ZN9QGLWidget11qt_metacastEPKc
                0x000000000804d050                _ZN7QWidget9showEventEP10QShowEvent
                0x000000000804d060                _ZSt17__throw_bad_allocv@@GLIBCXX_3.4
                0x000000000804d070                _Znaj@@GLIBCXX_3.4
                0x000000000804d080                glMatrixMode
                0x000000000804d090                FT_Init_FreeType
                0x000000000804d0a0                rb_define_class_variable
                0x000000000804d0b0                rb_str_substr
                0x000000000804d0c0                _ZN7QWidget6resizeERK5QSize
                0x000000000804d0d0                feof@@GLIBC_2.0
                0x000000000804d0e0                glClearColor
                0x000000000804d0f0                _ZN9QGLWidget6glDrawEv
                0x000000000804d100                rb_to_int
                0x000000000804d110                _ZNSs6assignEPKc@@GLIBCXX_3.4
                0x000000000804d120                _ZNKSs5rfindEcj@@GLIBCXX_3.4
                0x000000000804d130                exit@@GLIBC_2.0
                0x000000000804d140                rb_hash_aref
                0x000000000804d150                _ZN7QWidget16inputMethodEventEP17QInputMethodEvent
                0x000000000804d160                Mix_FadeOutMusic
                0x000000000804d170                rb_str_dup
                0x000000000804d180                _ZN9QGLWidget11resizeEventEP12QResizeEvent
                0x000000000804d190                close@@GLIBC_2.0
                0x000000000804d1a0                _ZN7QWidget11styleChangeER6QStyle
                0x000000000804d1b0                memcpy@@GLIBC_2.0
                0x000000000804d1c0                memmove@@GLIBC_2.0
                0x000000000804d1d0                _ZNSt14basic_ofstreamIcSt11char_traitsIcEEC1Ev@@GLIBCXX_3.4
                0x000000000804d1e0                rb_intern2
                0x000000000804d1f0                rb_str_concat
                0x000000000804d200                _ZN9QGLWidget15resizeOverlayGLEii
                0x000000000804d210                connect@@GLIBC_2.0
                0x000000000804d220                realloc@@GLIBC_2.0
                0x000000000804d230                _ZN7QObject10childEventEP11QChildEvent
                0x000000000804d240                rb_ary_entry
                0x000000000804d250                rb_ary_concat
                0x000000000804d260                Mix_HaltChannel
                0x000000000804d270                fgets@@GLIBC_2.0
                0x000000000804d280                rb_string_value_ptr
                0x000000000804d290                rb_num2dbl
                0x000000000804d2a0                Mix_PlayChannelTimed
                0x000000000804d2b0                rb_obj_is_kind_of
                0x000000000804d2c0                recv@@GLIBC_2.0
                0x000000000804d2d0                Mix_Pause
                0x000000000804d2e0                glLoadIdentity
                0x000000000804d2f0                _ZN7QThread11qt_metacastEPKc
                0x000000000804d300                _ZN7QWidget9setCursorERK7QCursor
                0x000000000804d310                _ZNSsC1ERKSsjj@@GLIBCXX_3.4
                0x000000000804d320                _ZNSt15_List_node_base9_M_unhookEv@@GLIBCXX_3.4.14
                0x000000000804d330                __stack_chk_fail@@GLIBC_2.4
                0x000000000804d340                _ZNSs9push_backEc@@GLIBCXX_3.4
                0x000000000804d350                rb_ary_new2
                0x000000000804d360                glOrtho
                0x000000000804d370                _ZN7QWidget14dragEnterEventEP15QDragEnterEvent
                0x000000000804d380                ruby_init_loadpath
                0x000000000804d390                pow@@GLIBC_2.0
                0x000000000804d3a0                _ZN7QObject10timerEventEP11QTimerEvent
                0x000000000804d3b0                glTranslatef
                0x000000000804d3c0                rb_marshal_dump
                0x000000000804d3d0                _ZN11QMessageBox8criticalEP7QWidgetRK7QStringS4_6QFlagsINS_14StandardButtonEES6_
                0x000000000804d3e0                _ZNSt15_List_node_base7_M_hookEPS_@@GLIBCXX_3.4.14
                0x000000000804d3f0                rb_obj_as_string
                0x000000000804d400                __cxa_guard_acquire@@CXXABI_1.3
                0x000000000804d410                rb_class_path
                0x000000000804d420                ftell@@GLIBC_2.0
                0x000000000804d430                _ZNK9QGLWidget11paintEngineEv
                0x000000000804d440                Mix_FadeOutChannel
                0x000000000804d450                _ZNSt9basic_iosIcSt11char_traitsIcEE4initEPSt15basic_streambufIcS1_E@@GLIBCXX_3.4
                0x000000000804d460                _ZdaPv@@GLIBCXX_3.4
                0x000000000804d470                _ZNSo9_M_insertIlEERSoT_@@GLIBCXX_3.4.9
                0x000000000804d480                _ZN9QGLWidget11makeCurrentEv
                0x000000000804d490                _ZNK7QWidget7devTypeEv
                0x000000000804d4a0                Mix_VolumeMusic
                0x000000000804d4b0                rb_gc_enable
                0x000000000804d4c0                glGenTextures
                0x000000000804d4d0                _ZNK7QWidget12isFullScreenEv
                0x000000000804d4e0                fwrite@@GLIBC_2.0
                0x000000000804d4f0                _ZN7QWidget11actionEventEP12QActionEvent
                0x000000000804d500                _ZN7QObject11customEventEP6QEvent
                0x000000000804d520                glViewport
                0x000000000804d530                rb_class_real
                0x000000000804d540                FT_Get_Glyph
                0x000000000804d550                FT_New_Face
                0x000000000804d560                glGetString
                0x000000000804d570                SDL_RWFromFile
                0x000000000804d580                _ZNK7QWidget16inputMethodQueryEN2Qt16InputMethodQueryE
                0x000000000804d590                _ZN9QGLWidget11qt_metacallEN11QMetaObject4CallEiPPv
                0x000000000804d5a0                _ZN7QWidget10leaveEventEP6QEvent
                0x000000000804d5b0                _ZN7QWidget8x11EventEP7_XEvent
                0x000000000804d5c0                _ZNK7QWidget8sizeHintEv
                0x000000000804d5d0                socket@@GLIBC_2.0
                0x000000000804d5e0                _ZNK7QWidget15minimumSizeHintEv
                0x000000000804d5f0                _ZNKSs7compareERKSs@@GLIBCXX_3.4
                0x000000000804d600                strstr@@GLIBC_2.0
                0x000000000804d610                rb_define_method
                0x000000000804d620                _ZSt18_Rb_tree_decrementPSt18_Rb_tree_node_base@@GLIBCXX_3.4
                0x000000000804d630                ceil@@GLIBC_2.0
                0x000000000804d640                SDL_Delay
                0x000000000804d650                _ZN11QFocusEvent6reasonEv
                0x000000000804d660                _ZN7QWidget21mouseDoubleClickEventEP11QMouseEvent
                0x000000000804d670                rb_define_module
                0x000000000804d680                FT_Glyph_To_Bitmap
                0x000000000804d690                SDL_InitSubSystem
                0x000000000804d6a0                _ZN7QWidget11changeEventEP6QEvent
                0x000000000804d6b0                _ZThn8_NK9QGLWidget11paintEngineEv
                0x000000000804d6c0                __memcpy_chk@@GLIBC_2.3.4
                0x000000000804d6d0                Mix_Playing
                0x000000000804d6e0                glVertex2f
                0x000000000804d6f0                _ZN7QString16fromAscii_helperEPKci
                0x000000000804d700                rb_iv_get
                0x000000000804d710                send@@GLIBC_2.0
                0x000000000804d720                rb_class_new_instance
                0x000000000804d730                Mix_LoadMUS
                0x000000000804d740                Mix_HookMusicFinished
                0x000000000804d750                rb_call_super
                0x000000000804d760                rb_str_times
                0x000000000804d770                rb_int2big
                0x000000000804d780                _ZdlPv@@GLIBCXX_3.4
                0x000000000804d790                _ZN9QGLWidgetC2EP7QWidgetPKS_6QFlagsIN2Qt10WindowTypeEE
                0x000000000804d7a0                rb_raise
                0x000000000804d7b0                rb_define_class
                0x000000000804d7c0                __cxa_guard_release@@CXXABI_1.3
                0x000000000804d7d0                _ZN9QGLWidget11swapBuffersEv
                0x000000000804d7e0                glEnable
                0x000000000804d7f0                _ZN7QObject13connectNotifyEPKc
                0x000000000804d800                glClear
                0x000000000804d810                rb_funcall2
                0x000000000804d820                FT_Load_Char
                0x000000000804d830                rb_str_new
                0x000000000804d840                FT_Done_Glyph
                0x000000000804d850                _ZN7QWidget18focusNextPrevChildEb
                0x000000000804d860                _ZN7QCursorD1Ev
                0x000000000804d870                _ZN7QWidget14showFullScreenEv
                0x000000000804d880                _Znwj@@GLIBCXX_3.4
                0x000000000804d890                _ZN9QGLWidgetD2Ev
                0x000000000804d8a0                glScissor
                0x000000000804d8b0                rb_define_class_under
                0x000000000804d8c0                __gxx_personality_v0@@CXXABI_1.3
                0x000000000804d8d0                _ZSt20__throw_length_errorPKc@@GLIBCXX_3.4
                0x000000000804d8e0                _ZN9QGLWidget5eventEP6QEvent
                0x000000000804d8f0                Mix_PlayMusic
                0x000000000804d900                _ZN7QWidget9dropEventEP10QDropEvent
                0x000000000804d910                _ZSt20__throw_out_of_rangePKc@@GLIBCXX_3.4
                0x000000000804d920                Mix_Volume
                0x000000000804d930                rb_ary_new
                0x000000000804d940                __assert_fail@@GLIBC_2.0
                0x000000000804d950                glReadPixels
                0x000000000804d960                glTexCoord2f
                0x000000000804d970                _ZThn8_NK7QWidget6metricEN12QPaintDevice17PaintDeviceMetricE
                0x000000000804d980                _Unwind_Resume@@GCC_3.0
                0x000000000804d990                _ZN12QApplicationC1ERiPPci
                0x000000000804d9a0                _ZNSt8ios_base4InitD1Ev@@GLIBCXX_3.4
                0x000000000804d9b0                _ZN7QWidget9hideEventEP10QHideEvent
                0x000000000804d9c0                rb_obj_clone
                0x000000000804d9d0                rb_funcall
                0x000000000804d9e0                rb_require
                0x000000000804d9f0                rand@@GLIBC_2.0
                0x000000000804da00                memcmp@@GLIBC_2.0
                0x000000000804da10                _ZNSs6appendEPKc@@GLIBCXX_3.4
                0x000000000804da20                inet_addr@@GLIBC_2.0
                0x000000000804da30                _ZN7QWidget13enabledChangeEb
                0x000000000804da40                memset@@GLIBC_2.0
                0x000000000804da50                _ZN11QMessageBox7warningEP7QWidgetRK7QStringS4_6QFlagsINS_14StandardButtonEES6_
                0x000000000804da60                ruby_init
                0x000000000804da70                FT_Set_Transform
                0x000000000804da80                rb_hash_delete
                0x000000000804da90                _ZNSt8ios_baseD2Ev@@GLIBCXX_3.4
                0x000000000804daa0                Mix_PauseMusic
                0x000000000804dab0                ceilf@@GLIBC_2.0
                0x000000000804dac0                glPushMatrix
                0x000000000804dad0                glVertex2i
                0x000000000804dae0                rb_define_singleton_method
                0x000000000804daf0                _ZNSt14basic_ifstreamIcSt11char_traitsIcEE4openEPKcSt13_Ios_Openmode@@GLIBCXX_3.4
                0x000000000804db00                _ZN9QGLWidget19initializeOverlayGLEv
                0x000000000804db10                shutdown@@GLIBC_2.0
                0x000000000804db20                rb_ary_push
                0x000000000804db30                fread@@GLIBC_2.0
                0x000000000804db40                rb_define_module_under
                0x000000000804db50                ldexp@@GLIBC_2.0
                0x000000000804db60                _ZN7QWidget16contextMenuEventEP17QContextMenuEvent
                0x000000000804db70                _ZN7QWidget10enterEventEP6QEvent
                0x000000000804db80                _ZN7QThread11qt_metacallEN11QMetaObject4CallEiPPv
                0x000000000804db90                _ZN7QWidget10fontChangeERK5QFont
                0x000000000804dba0                glTexSubImage2D
                0x000000000804dbb0                glTexParameteri
                0x000000000804dbc0                rb_cv_get
                0x000000000804dbd0                __cxa_end_catch@@CXXABI_1.3
                0x000000000804dbe0                _ZN9QGLWidget7paintGLEv
                0x000000000804dbf0                _ZN9QGLWidget14paintOverlayGLEv
                0x000000000804dc00                rb_protect
                0x000000000804dc10                _ZNSt14basic_ofstreamIcSt11char_traitsIcEED1Ev@@GLIBCXX_3.4
                0x000000000804dc20                strtol@@GLIBC_2.0
                0x000000000804dc30                _ZNK9QGLWidget10metaObjectEv
                0x000000000804dc40                glXGetProcAddressARB
                0x000000000804dc50                Mix_LoadWAV_RW
                0x000000000804dc60                _ZSt16__ostream_insertIcSt11char_traitsIcEERSt13basic_ostreamIT_T0_ES6_PKS3_i@@GLIBCXX_3.4.9
                0x000000000804dc70                _ZN7QWidget10setVisibleEb
                0x000000000804dc80                _ZNK7QWidget6metricEN12QPaintDevice17PaintDeviceMetricE
                0x000000000804dc90                _ZNSs6assignERKSs@@GLIBCXX_3.4
                0x000000000804dca0                _ZN7QWidget14dragLeaveEventEP15QDragLeaveEvent
                0x000000000804dcb0                _ZNK7QWidget14heightForWidthEi
                0x000000000804dcc0                __cxa_rethrow@@CXXABI_1.3
                0x000000000804dcd0                Mix_FreeChunk
                0x000000000804dce0                __cxa_atexit@@GLIBC_2.1.3
                0x000000000804dcf0                free@@GLIBC_2.0
                0x000000000804dd00                glRotatef
                0x000000000804dd10                rb_file_open
                0x000000000804dd20                glShadeModel
                0x000000000804dd30                _ZNSs6appendERKSs@@GLIBCXX_3.4
                0x000000000804dd40                _ZNSt13basic_filebufIcSt11char_traitsIcEEC1Ev@@GLIBCXX_3.4
                0x000000000804dd50                Mix_FreeMusic
                0x000000000804dd60                rb_hash_aset
                0x000000000804dd70                Mix_Resume
                0x000000000804dd80                Mix_HaltMusic
                0x000000000804dd90                glGetIntegerv
                0x000000000804dda0                _ZN7QWidget14setWindowTitleERK7QString
                0x000000000804ddb0                rb_hash_new
                0x000000000804ddc0                rb_cv_set
                0x000000000804ddd0                _ZSt28_Rb_tree_rebalance_for_erasePSt18_Rb_tree_node_baseRS_@@GLIBCXX_3.4
                0x000000000804dde0                _ZNSt15_List_node_base4swapERS_S0_@@GLIBCXX_3.4
                0x000000000804ddf0                fgetc@@GLIBC_2.0
                0x000000000804de00                rb_errinfo
                0x000000000804de10                fclose@@GLIBC_2.1
                0x000000000804de20                _ZN12QApplication4execEv
                0x000000000804de30                rb_gv_get
                0x000000000804de40                glEnd
                0x000000000804de50                _ZN7QWidget10closeEventEP11QCloseEvent
                0x000000000804de60                _ZSt18_Rb_tree_incrementPKSt18_Rb_tree_node_base@@GLIBCXX_3.4
                0x000000000804de70                _ZNSt13basic_filebufIcSt11char_traitsIcEED1Ev@@GLIBCXX_3.4
                0x000000000804de80                rb_const_get
                0x000000000804de90                _ZN7QCursorC1EN2Qt11CursorShapeE
                0x000000000804dea0                _ZNSt14basic_ofstreamIcSt11char_traitsIcEE5closeEv@@GLIBCXX_3.4
                0x000000000804deb0                _ZN7QObject11eventFilterEPS_P6QEvent
                0x000000000804dec0                _ZNK9QKeyEvent9modifiersEv
                0x000000000804ded0                Mix_ResumeMusic
                0x000000000804dee0                rb_ary_clear
                0x000000000804def0                rb_ary_store
                0x000000000804df00                _ZN7QThreadC2EP7QObject
                0x000000000804df10                glDisable
                0x000000000804df20                __cxa_pure_virtual@@CXXABI_1.3
                0x000000000804df30                FT_Glyph_Get_CBox
                0x000000000804df40                bind@@GLIBC_2.0
                0x000000000804df50                rb_define_global_function
                0x000000000804df60                _ZNSi3getEv@@GLIBCXX_3.4
                0x000000000804df70                fopen@@GLIBC_2.1
                0x000000000804df80                _ZN11QMessageBox11informationEP7QWidgetRK7QStringS4_6QFlagsINS_14StandardButtonEES6_
                0x000000000804df90                _ZNSt13basic_filebufIcSt11char_traitsIcEE4openEPKcSt13_Ios_Openmode@@GLIBCXX_3.4
                0x000000000804dfa0                _ZSt18_Rb_tree_incrementPSt18_Rb_tree_node_base@@GLIBCXX_3.4
                0x000000000804dfb0                rb_gc_start
                0x000000000804dfc0                rb_ary_new3
                0x000000000804dfd0                malloc@@GLIBC_2.0
                0x000000000804dfe0                glPixelTransferf
                0x000000000804dff0                _ZN7QObject5eventEP6QEvent
                0x000000000804e000                _ZNSt8ios_baseC2Ev@@GLIBCXX_3.4
                0x000000000804e010                rb_bug
                0x000000000804e020                _ZN7QWidget14languageChangeEv
                0x000000000804e030                rb_gc_disable
                0x000000000804e040                _ZSt4endlIcSt11char_traitsIcEERSt13basic_ostreamIT_T0_ES6_@@GLIBCXX_3.4
                0x000000000804e050                _ZNSt8ios_base4InitC1Ev@@GLIBCXX_3.4
                0x000000000804e060                glBegin
                0x000000000804e070                _ZN9QGLWidget15updateOverlayGLEv
                0x000000000804e080                rb_define_const
                0x000000000804e090                glPopMatrix
                0x000000000804e0a0                strdup@@GLIBC_2.0
                0x000000000804e0b0                _ZNKSt12__basic_fileIcE7is_openEv@@GLIBCXX_3.4
                0x000000000804e0c0                glDeleteTextures
                0x000000000804e0d0                _ZN7QWidget11tabletEventEP12QTabletEvent
                0x000000000804e0e0                SDL_GetError
                0x000000000804e0f0                rb_num2long
                0x000000000804e100                _ZSt18_Rb_tree_decrementPKSt18_Rb_tree_node_base@@GLIBCXX_3.4
                0x000000000804e110                rb_gc_register_address
                0x000000000804e120                rb_float_new
                0x000000000804e130                rb_exit
                0x000000000804e140                _ZNSt15_List_node_base11_M_transferEPS_S0_@@GLIBCXX_3.4.14
                0x000000000804e150                _ZN7QString4freeEPNS_4DataE
                0x000000000804e160                _ZNKSs7compareEPKc@@GLIBCXX_3.4
                0x000000000804e170                _ZSt29_Rb_tree_insert_and_rebalancebPSt18_Rb_tree_node_baseS0_RS_@@GLIBCXX_3.4
                0x000000000804e180                _ZN7QObject16disconnectNotifyEPKc
                0x000000000804e190                glTexImage2D
                0x000000000804e1a0                __vsprintf_chk@@GLIBC_2.3.4
                0x000000000804e1b0                _ZN7QThread5startENS_8PriorityE
                0x000000000804e1c0                FT_Set_Pixel_Sizes
                0x000000000804e1d0                _ZNSs6assignEPKcj@@GLIBCXX_3.4
                0x000000000804e1e0                _ZN7QThreadD2Ev
                0x000000000804e1f0                _ZNK7QThread10metaObjectEv
                0x000000000804e200                _ZNSt9basic_iosIcSt11char_traitsIcEE5clearESt12_Ios_Iostate@@GLIBCXX_3.4
                0x000000000804e210                SDL_GetTicks
                0x000000000804e220                rb_gc
                0x000000000804e230                mcount@@GLIBC_2.0
                0x000000000804e240                glColor4f
                0x000000000804e250                rb_check_type
                0x000000000804e260                strncmp@@GLIBC_2.0
                0x000000000804e270                sqrtf@@GLIBC_2.0
                0x000000000804e280                glBlendFunc
                0x000000000804e290                Mix_OpenAudio
                0x000000000804e2a0                rb_eval_string
                0x000000000804e2b0                glBindTexture
                0x000000000804e2c0                rb_iv_set
                0x000000000804e2d0                _ZNSsD1Ev@@GLIBCXX_3.4
                0x000000000804e2e0                _ZN7QWidget13paletteChangeERK8QPalette
                0x000000000804e2f0                rb_gv_set
                0x000000000804e300                _ZNSsC1EPKcRKSaIcE@@GLIBCXX_3.4
                0x000000000804e310                rb_cvar_get
                0x000000000804e320                _ZN7QWidget9moveEventEP10QMoveEvent
                0x000000000804e330                rb_Float
                0x000000000804e340                rb_funcall3
                0x000000000804e350                __sprintf_chk@@GLIBC_2.3.4
                0x000000000804e360                rb_marshal_load
                0x000000000804e370                rb_class2name
                0x000000000804e380                _ZN9QGLWidget10paintEventEP11QPaintEvent
                0x000000000804e390                fseek@@GLIBC_2.0
                0x000000000804e3a0                FT_Select_Charmap
                0x000000000804e3b0                _ZN9QGLWidget6glInitEv
                0x000000000804e3c0                _ZStlsIcSt11char_traitsIcESaIcEERSt13basic_ostreamIT_T0_ES7_RKSbIS4_S5_T1_E@@GLIBCXX_3.4
 *(.iplt)
 .iplt          0x0000000000000000        0x0 /usr/lib/crt1.o

.text           0x000000000804e3d0    0x40cec
 *(.text.unlikely .text.*_unlikely)
 *(.text .stub .text.* .gnu.linkonce.t.*)
 .text          0x000000000804e3d0       0x24 /usr/lib/crt1.o
                0x000000000804e3d0                _start
 .text          0x000000000804e3f4        0x0 /usr/lib/crti.o
 *fill*         0x000000000804e3f4        0xc 90909090
 .text          0x000000000804e400       0x83 /usr/local/lib/gcc/i686-pc-linux-gnu/4.5.0/crtbegin.o
 *fill*         0x000000000804e483        0x1 90909090
 .text          0x000000000804e484       0xd2 ./objs/argss.o
                0x000000000804e484                _ZN5ARGSS4InitEv
                0x000000000804e539                _ZN5ARGSS4ExitEv
 *fill*         0x000000000804e556        0x2 90909090
 .text          0x000000000804e558      0x79d ./objs/argss_audio.o
                0x000000000804e558                _ZN5ARGSS6AAudio8rse_stopEm
                0x000000000804e5d5                _ZN5ARGSS6AAudio8rse_playEiPmm
                0x000000000804e6e5                _ZN5ARGSS6AAudio8rme_fadeEmm
                0x000000000804e736                _ZN5ARGSS6AAudio8rme_stopEm
                0x000000000804e769                _ZN5ARGSS6AAudio8rme_playEiPmm
                0x000000000804e879                _ZN5ARGSS6AAudio9rbgs_fadeEmm
                0x000000000804e8ca                _ZN5ARGSS6AAudio9rbgs_stopEm
                0x000000000804e8fd                _ZN5ARGSS6AAudio9rbgs_playEiPmm
                0x000000000804ea0d                _ZN5ARGSS6AAudio9rbgm_fadeEmm
                0x000000000804ea5e                _ZN5ARGSS6AAudio9rbgm_stopEm
                0x000000000804ea91                _ZN5ARGSS6AAudio9rbgm_playEiPmm
                0x000000000804eba1                _ZN5ARGSS6AAudio4InitEv
 *fill*         0x000000000804ecf5        0x3 90909090
 .text          0x000000000804ecf8     0x172d ./objs/argss_bitmap.o
                0x000000000804ecf8                _ZN5ARGSS7ABitmap10rdisposedQEm
                0x000000000804edd0                _ZN5ARGSS7ABitmap8rdisposeEm
                0x000000000804ee28                _ZN5ARGSS7ABitmap11rinitializeEiPmm
                0x000000000804ef0f                _ZN5ARGSS7ABitmap4InitEv
                0x000000000804f1ef                _ZN5ARGSS7ABitmap13CheckDisposedEm
                0x000000000804f240                _ZN5ARGSS7ABitmap4rdupEm
                0x000000000804f33c                _ZN5ARGSS7ABitmap6rfontEEmm
                0x000000000804f395                _ZN5ARGSS7ABitmap5rfontEm
                0x000000000804f3d8                _ZN5ARGSS7ABitmap12rradial_blurEmmm
                0x000000000804f442                _ZN5ARGSS7ABitmap5rblurEm
                0x000000000804f48a                _ZN5ARGSS7ABitmap11rclear_rectEiPmm
                0x000000000804f5a7                _ZN5ARGSS7ABitmap19rgradient_fill_rectEiPmm
                0x000000000804f7c1                _ZN5ARGSS7ABitmap11rhsl_changeEiPmm
                0x000000000804f901                _ZN5ARGSS7ABitmap17rluminance_changeEmm
                0x000000000804f961                _ZN5ARGSS7ABitmap18rsaturation_changeEmm
                0x000000000804f9c1                _ZN5ARGSS7ABitmap11rhue_changeEmm
                0x000000000804fa21                _ZN5ARGSS7ABitmap10rset_pixelEmmmm
                0x000000000804fac8                _ZN5ARGSS7ABitmap10rget_pixelEmmm
                0x000000000804fb5d                _ZN5ARGSS7ABitmap6rclearEiPmm
                0x000000000804fc17                _ZN5ARGSS7ABitmap10rfill_rectEiPmm
                0x000000000804fd95                _ZN5ARGSS7ABitmap12rstretch_bltEiPmm
                0x000000000804ff16                _ZN5ARGSS7ABitmap4rbltEiPmm
                0x000000000805006f                _ZN5ARGSS7ABitmap5rrectEm
                0x00000000080500e5                _ZN5ARGSS7ABitmap7rheightEm
                0x0000000008050135                _ZN5ARGSS7ABitmap6rwidthEm
                0x0000000008050185                _ZN5ARGSS7ABitmap10rtext_sizeEmm
                0x0000000008050246                _ZN5ARGSS7ABitmap10rdraw_textEiPmm
 *fill*         0x0000000008050425        0x3 90909090
 .text          0x0000000008050428      0xa69 ./objs/argss_color.o
                0x0000000008050428                _ZN5ARGSS6AColor6ralphaEm
                0x000000000805045e                _ZN5ARGSS6AColor5rblueEm
                0x0000000008050494                _ZN5ARGSS6AColor6rgreenEm
                0x00000000080504ca                _ZN5ARGSS6AColor4rredEm
                0x0000000008050500                _ZN5ARGSS6AColor5rloadEmm
                0x00000000080505c8                _ZN5ARGSS6AColor5rdumpEiPmm
                0x00000000080506a8                _ZN5ARGSS6AColor8rinspectEm
                0x0000000008050785                _Z13CapColorValued
                0x00000000080507d1                _ZN5ARGSS6AColor7ralphaEEmm
                0x0000000008050828                _ZN5ARGSS6AColor6rblueEEmm
                0x000000000805087f                _ZN5ARGSS6AColor7rgreenEEmm
                0x00000000080508d6                _ZN5ARGSS6AColor5rredEEmm
                0x000000000805092d                _ZN5ARGSS6AColor4rsetEiPmm
                0x0000000008050a44                _ZN5ARGSS6AColor11rinitializeEiPmm
                0x0000000008050b5b                _ZN5ARGSS6AColor4InitEv
                0x0000000008050ce9                _ZN5ARGSS6AColor3NewEv
                0x0000000008050d6d                _ZN5ARGSS6AColor3NewEm
                0x0000000008050dfc                _ZN5ARGSS6AColor3NewEdddd
 *fill*         0x0000000008050e91        0x3 90909090
 .text          0x0000000008050e94       0x41 ./objs/argss_error.o
                0x0000000008050e94                _ZN5ARGSS6AError4InitEv
 *fill*         0x0000000008050ed5        0x3 90909090
 .text          0x0000000008050ed8      0xb89 ./objs/argss_font.o
                0x0000000008050ed8                _ZN5ARGSS5AFont7rexistQEm
                0x0000000008050f03                _ZN5ARGSS5AFont16rdefault_shadowEEmm
                0x0000000008050f4f                _ZN5ARGSS5AFont16rdefault_italicEEmm
                0x0000000008050f9b                _ZN5ARGSS5AFont14rdefault_boldEEmm
                0x0000000008050fe7                _ZN5ARGSS5AFont15rdefault_shadowEm
                0x0000000008051020                _ZN5ARGSS5AFont14rdefault_colorEm
                0x0000000008051059                _ZN5ARGSS5AFont15rdefault_italicEm
                0x0000000008051092                _ZN5ARGSS5AFont13rdefault_boldEm
                0x00000000080510cb                _ZN5ARGSS5AFont13rdefault_sizeEm
                0x0000000008051104                _ZN5ARGSS5AFont13rdefault_nameEm
                0x000000000805113d                _ZN5ARGSS5AFont15rdefault_colorEEmm
                0x000000000805118f                _ZN5ARGSS5AFont14rdefault_sizeEEmm
                0x00000000080511e1                _ZN5ARGSS5AFont14rdefault_nameEEmm
                0x0000000008051231                _ZN5ARGSS5AFont8rshadowEEmm
                0x000000000805127e                _ZN5ARGSS5AFont7rcolorEEmm
                0x00000000080512cf                _ZN5ARGSS5AFont8ritalicEEmm
                0x000000000805131c                _ZN5ARGSS5AFont6rboldEEmm
                0x0000000008051369                _ZN5ARGSS5AFont6rsizeEEmm
                0x00000000080513bc                _ZN5ARGSS5AFont6rnameEEmm
                0x000000000805140d                _ZN5ARGSS5AFont7rshadowEm
                0x0000000008051443                _ZN5ARGSS5AFont6rcolorEm
                0x0000000008051479                _ZN5ARGSS5AFont7ritalicEm
                0x00000000080514af                _ZN5ARGSS5AFont5rboldEm
                0x00000000080514e5                _ZN5ARGSS5AFont5rsizeEm
                0x000000000805151b                _ZN5ARGSS5AFont5rnameEm
                0x0000000008051551                _ZN5ARGSS5AFont11rinitializeEiPmm
                0x00000000080516a2                _ZN5ARGSS5AFont4InitEv
                0x0000000008051a29                _ZN5ARGSS5AFont3NewEv
 *fill*         0x0000000008051a61        0x3 90909090
 .text          0x0000000008051a64      0x8ad ./objs/argss_graphics.o
                0x0000000008051a64                _ZN5ARGSS9AGraphics4rfpsEm
                0x0000000008051ae1                _ZN5ARGSS9AGraphics12rbrightnessEEmm
                0x0000000008051b2f                _ZN5ARGSS9AGraphics11rbrightnessEm
                0x0000000008051b62                _ZN5ARGSS9AGraphics7rfadeinEmm
                0x0000000008051bb3                _ZN5ARGSS9AGraphics8rfadeoutEmm
                0x0000000008051c04                _ZN5ARGSS9AGraphics15rsnap_to_bitmapEm
                0x0000000008051c31                _ZN5ARGSS9AGraphics14rresize_screenEmmm
                0x0000000008051cf2                _ZN5ARGSS9AGraphics7rheightEm
                0x0000000008051d27                _ZN5ARGSS9AGraphics6rwidthEm
                0x0000000008051d5c                _ZN5ARGSS9AGraphics5rwaitEmm
                0x0000000008051dad                _ZN5ARGSS9AGraphics11rbackcolorEEmm
                0x0000000008051df3                _ZN5ARGSS9AGraphics10rbackcolorEm
                0x0000000008051e20                _ZN5ARGSS9AGraphics13rframe_countEEmm
                0x0000000008051e6e                _ZN5ARGSS9AGraphics12rframe_countEm
                0x0000000008051ea1                _ZN5ARGSS9AGraphics12rframe_rateEEmm
                0x0000000008051eef                _ZN5ARGSS9AGraphics11rframe_rateEm
                0x0000000008051f22                _ZN5ARGSS9AGraphics12rframe_resetEm
                0x0000000008051f55                _ZN5ARGSS9AGraphics11rtransitionEiPmm
                0x000000000805206d                _ZN5ARGSS9AGraphics7rfreezeEm
                0x00000000080520a0                _ZN5ARGSS9AGraphics7rupdateEm
                0x00000000080520d3                _ZN5ARGSS9AGraphics4InitEv
 *fill*         0x0000000008052311        0x3 90909090
 .text          0x0000000008052314      0x5ca ./objs/argss_input.o
                0x0000000008052314                _ZN5ARGSS6AInput9rreleasedEm
                0x0000000008052341                _ZN5ARGSS6AInput9rrepeatedEm
                0x000000000805236e                _ZN5ARGSS6AInput10rtriggeredEm
                0x000000000805239b                _ZN5ARGSS6AInput8rpressedEm
                0x0000000008052419                _ZN5ARGSS6AInput5rdir8Em
                0x000000000805244e                _ZN5ARGSS6AInput5rdir4Em
                0x0000000008052483                _ZN5ARGSS6AInput9rreleaseQEmm
                0x00000000080524cf                _ZN5ARGSS6AInput8rrepeatQEmm
                0x000000000805251b                _ZN5ARGSS6AInput9rtriggerQEmm
                0x0000000008052567                _ZN5ARGSS6AInput7rpressQEmm
                0x00000000080525b3                _ZN5ARGSS6AInput7rupdateEm
                0x00000000080525e6                _ZN5ARGSS6AInput4InitEv
 *fill*         0x00000000080528de        0x2 90909090
 .text          0x00000000080528e0      0xcc6 ./objs/argss_keys.o
                0x00000000080528e0                _ZN5ARGSS5AKeys4InitEv
 *fill*         0x00000000080535a6        0x2 90909090
 .text          0x00000000080535a8      0x571 ./objs/argss_output.o
                0x0000000008053612                _ZN5ARGSS7AOutput10stdin_getcEiPmm
                0x000000000805367b                _ZN5ARGSS7AOutput10stdin_getsEiPmm
                0x00000000080536e4                _ZN5ARGSS7AOutput13rstderr_writeEmm
                0x000000000805376d                _ZN5ARGSS7AOutput13rstdout_writeEmm
                0x0000000008053841                _ZN5ARGSS7AOutput5rnoneEm
                0x0000000008053874                _ZN5ARGSS7AOutput5rfileEmm
                0x00000000080538f1                _ZN5ARGSS7AOutput7rmsgboxEm
                0x0000000008053924                _ZN5ARGSS7AOutput8rconsoleEm
                0x0000000008053957                _ZN5ARGSS7AOutput4InitEv
 *fill*         0x0000000008053b19        0x3 90909090
 .text          0x0000000008053b1c      0xe3d ./objs/argss_plane.o
                0x0000000008053b1c                _ZN5ARGSS6APlane10rdisposedQEm
                0x0000000008053bf4                _ZN5ARGSS6APlane11rinitializeEiPmm
                0x0000000008053d92                _ZN5ARGSS6APlane4InitEv
                0x000000000805408c                _ZN5ARGSS6APlane13CheckDisposedEm
                0x00000000080540db                _ZN5ARGSS6APlane6rtoneEEmm
                0x0000000008054145                _ZN5ARGSS6APlane5rtoneEm
                0x0000000008054188                _ZN5ARGSS6APlane7rcolorEEmm
                0x00000000080541f2                _ZN5ARGSS6APlane6rcolorEm
                0x0000000008054235                _ZN5ARGSS6APlane12rblend_typeEEmm
                0x000000000805429d                _ZN5ARGSS6APlane11rblend_typeEm
                0x00000000080542e0                _ZN5ARGSS6APlane9ropacityEEmm
                0x0000000008054348                _ZN5ARGSS6APlane8ropacityEm
                0x000000000805438b                _ZN5ARGSS6APlane8rzoom_yEEmm
                0x00000000080543fe                _ZN5ARGSS6APlane7rzoom_yEm
                0x0000000008054441                _ZN5ARGSS6APlane8rzoom_xEEmm
                0x00000000080544b4                _ZN5ARGSS6APlane7rzoom_xEm
                0x00000000080544f7                _ZN5ARGSS6APlane4royEEmm
                0x000000000805455f                _ZN5ARGSS6APlane3royEm
                0x00000000080545a2                _ZN5ARGSS6APlane4roxEEmm
                0x000000000805460a                _ZN5ARGSS6APlane3roxEm
                0x000000000805464d                _ZN5ARGSS6APlane3rzEEmm
                0x00000000080546b5                _ZN5ARGSS6APlane2rzEm
                0x00000000080546f8                _ZN5ARGSS6APlane9rvisibleEEmm
                0x000000000805475c                _ZN5ARGSS6APlane8rvisibleEm
                0x000000000805479f                _ZN5ARGSS6APlane8rbitmapEEmm
                0x0000000008054809                _ZN5ARGSS6APlane7rbitmapEm
                0x000000000805484c                _ZN5ARGSS6APlane10rviewportEEmm
                0x00000000080548b6                _ZN5ARGSS6APlane9rviewportEm
                0x00000000080548f9                _ZN5ARGSS6APlane8rdisposeEm
 *fill*         0x0000000008054959        0x3 90909090
 .text          0x000000000805495c      0x932 ./objs/argss_rect.o
                0x000000000805495c                _ZN5ARGSS5ARect5rloadEmm
                0x0000000008054a24                _ZN5ARGSS5ARect7rheightEm
                0x0000000008054a5a                _ZN5ARGSS5ARect6rwidthEm
                0x0000000008054a90                _ZN5ARGSS5ARect2ryEm
                0x0000000008054ac6                _ZN5ARGSS5ARect2rxEm
                0x0000000008054afc                _ZN5ARGSS5ARect5rdumpEiPmm
                0x0000000008054c26                _ZN5ARGSS5ARect8rinspectEm
                0x0000000008054ce6                _ZN5ARGSS5ARect8rheightEEmm
                0x0000000008054d37                _ZN5ARGSS5ARect7rwidthEEmm
                0x0000000008054d88                _ZN5ARGSS5ARect3ryEEmm
                0x0000000008054dd9                _ZN5ARGSS5ARect3rxEEmm
                0x0000000008054e2a                _ZN5ARGSS5ARect4rsetEmmmmm
                0x0000000008054eed                _ZN5ARGSS5ARect11rinitializeEmmmmm
                0x0000000008054fdb                _ZN5ARGSS5ARect6remptyEm
                0x0000000008055051                _ZN5ARGSS5ARect4InitEv
                0x00000000080551f9                _ZN5ARGSS5ARect3NewEdddd
 *fill*         0x000000000805528e        0x2 90909090
 .text          0x0000000008055290     0x5680 ./objs/argss_rpg.o
                0x0000000008055290                _ZN5ARGSS4ARPG23rsystemwords_initializeEm
                0x0000000008055555                _ZN5ARGSS4ARPG21raudiofile_initializeEiPmm
                0x000000000805561e                _ZN5ARGSS4ARPG29rsystemtestbattler_initializeEm
                0x0000000008055708                _ZN5ARGSS4ARPG30rtrooppagecondition_initializeEm
                0x0000000008055834                _ZN5ARGSS4ARPG23rtroopmember_initializeEm
                0x00000000080558d2                _ZN5ARGSS4ARPG23renemyaction_initializeEm
                0x00000000080559f2                _ZN5ARGSS4ARPG25rclasslearning_initializeEm
                0x0000000008055a55                _ZN5ARGSS4ARPG28reventpagegraphic_initializeEm
                0x0000000008055b41                _ZN5ARGSS4ARPG30reventpagecondition_initializeEm
                0x0000000008055c39                _ZN5ARGSS4ARPG19rmapinfo_initializeEm
                0x0000000008055d02                _ZN5ARGSS4ARPG23rcommonevent_initializeEm
                0x0000000008055dc8                _ZN5ARGSS4ARPG21rtrooppage_initializeEm
                0x0000000008055e5e                _ZN5ARGSS4ARPG21rmoveroute_initializeEm
                0x0000000008055ed8                _ZN5ARGSS4ARPG21reventpage_initializeEm
                0x0000000008056051                _ZN5ARGSS4ARPG17revent_initializeEmmm
                0x000000000805610a                _ZN5ARGSS4ARPG18rsystem_initializeEm
                0x00000000080565b3                _ZN5ARGSS4ARPG21ranimation_initializeEm
                0x00000000080566c6                _ZN5ARGSS4ARPG17rstate_initializeEm
                0x0000000008056995                _ZN5ARGSS4ARPG17rtroop_initializeEm
                0x0000000008056a3a                _ZN5ARGSS4ARPG17rarmor_initializeEm
                0x0000000008056c11                _ZN5ARGSS4ARPG18rweapon_initializeEm
                0x0000000008056dfd                _ZN5ARGSS4ARPG16ritem_initializeEm
                0x00000000080570ec                _ZN5ARGSS4ARPG17rskill_initializeEm
                0x00000000080573e6                _ZN5ARGSS4ARPG23rmovecommand_initializeEiPmm
                0x000000000805747c                _ZN5ARGSS4ARPG24reventcommand_initializeEiPmm
                0x0000000008057539                _ZN5ARGSS4ARPG17renemy_initializeEm
                0x000000000805781d                _ZN5ARGSS4ARPG17rclass_initializeEm
                0x0000000008057912                _ZN5ARGSS4ARPG19rtileset_initializeEm
                0x0000000008057b6a                _ZN5ARGSS4ARPG27ranimationtiming_initializeEm
                0x0000000008057c80                _ZN5ARGSS4ARPG26ranimationframe_initializeEm
                0x0000000008057cfd                _ZN5ARGSS4ARPG17ractor_initializeEm
                0x0000000008058008                _ZN5ARGSS4ARPG15rmap_initializeEmmm
                0x000000000805817c                _ZN5ARGSS4ARPG4InitEv
 .text          0x000000000805a910      0xd37 ./objs/argss_rpg_cache.o
                0x000000000805a910                _ZN5ARGSS4ARPG6ACache6rclearEm
                0x000000000805aa88                _ZN5ARGSS4ARPG6ACache12rload_bitmapEiPmm
                0x000000000805acc0                _ZN5ARGSS4ARPG6ACache11rwindowskinEmm
                0x000000000805ad32                _ZN5ARGSS4ARPG6ACache6rtitleEmm
                0x000000000805ada4                _ZN5ARGSS4ARPG6ACache8rtilesetEmm
                0x000000000805ae16                _ZN5ARGSS4ARPG6ACache5rtileEmmmm
                0x000000000805afec                _ZN5ARGSS4ARPG6ACache8rpictureEmm
                0x000000000805b05e                _ZN5ARGSS4ARPG6ACache9rpanoramaEmmm
                0x000000000805b0cd                _ZN5ARGSS4ARPG6ACache5riconEmm
                0x000000000805b13f                _ZN5ARGSS4ARPG6ACache9rgameoverEmm
                0x000000000805b1b1                _ZN5ARGSS4ARPG6ACache4rfogEmmm
                0x000000000805b220                _ZN5ARGSS4ARPG6ACache10rcharacterEmmm
                0x000000000805b28f                _ZN5ARGSS4ARPG6ACache8rbattlerEmmm
                0x000000000805b2fe                _ZN5ARGSS4ARPG6ACache11rbattlebackEmm
                0x000000000805b370                _ZN5ARGSS4ARPG6ACache9rautotileEmm
                0x000000000805b3e2                _ZN5ARGSS4ARPG6ACache10ranimationEmmm
                0x000000000805b451                _ZN5ARGSS4ARPG6ACache4InitEv
 *fill*         0x000000000805b647        0x1 90909090
 .text          0x000000000805b648     0x3cfe ./objs/argss_rpg_sprite.o
                0x000000000805b648                _ZN5ARGSS4ARPG7ASprite7rblinkQEm
                0x000000000805b6c8                _ZN5ARGSS4ARPG7ASprite22rupdate_loop_animationEm
                0x000000000805b850                _ZN5ARGSS4ARPG7ASprite8reffectQEm
                0x000000000805b98c                _ZN5ARGSS4ARPG7ASprite3ryEEmm
                0x000000000805bb12                _ZN5ARGSS4ARPG7ASprite3rxEEmm
                0x000000000805bc98                _ZN5ARGSS4ARPG7ASprite17rupdate_animationEm
                0x000000000805be8e                _ZN5ARGSS4ARPG7ASprite25ranimation_process_timingEmmm
                0x000000000805c126                _ZN5ARGSS4ARPG7ASprite10rblink_offEm
                0x000000000805c211                _ZN5ARGSS4ARPG7ASprite9rblink_onEm
                0x000000000805c284                _ZN5ARGSS4ARPG7ASprite15rdispose_damageEm
                0x000000000805c374                _ZN5ARGSS4ARPG7ASprite22ranimation_set_spritesEmmmm
                0x000000000805ccb5                _ZN5ARGSS4ARPG7ASprite7rupdateEm
                0x000000000805d3f2                _ZN5ARGSS4ARPG7ASprite23rdispose_loop_animationEm
                0x000000000805d597                _ZN5ARGSS4ARPG7ASprite18rdispose_animationEm
                0x000000000805d73c                _ZN5ARGSS4ARPG7ASprite8rdisposeEm
                0x000000000805d78d                _ZN5ARGSS4ARPG7ASprite15rloop_animationEmm
                0x000000000805da2f                _ZN5ARGSS4ARPG7ASprite10ranimationEmmm
                0x000000000805de1b                _ZN5ARGSS4ARPG7ASprite7rdamageEmmm
                0x000000000805e9b7                _ZN5ARGSS4ARPG7ASprite9rcollapseEm
                0x000000000805eb21                _ZN5ARGSS4ARPG7ASprite7rescapeEm
                0x000000000805ec8b                _ZN5ARGSS4ARPG7ASprite7rappearEm
                0x000000000805edf2                _ZN5ARGSS4ARPG7ASprite7rwhitenEm
                0x000000000805ef5c                _ZN5ARGSS4ARPG7ASprite11rinitializeEiPmm
                0x000000000805f07a                _ZN5ARGSS4ARPG7ASprite4InitEv
 *fill*         0x000000000805f346        0x2 90909090
 .text          0x000000000805f348      0xd62 ./objs/argss_rpg_weather.o
                0x000000000805f3e3                _ZN5ARGSS4ARPG8AWeather7rupdateEm
                0x000000000805f615                _ZN5ARGSS4ARPG8AWeather5rmaxEEmm
                0x000000000805f6e0                _ZN5ARGSS4ARPG8AWeather4royEEmm
                0x000000000805f773                _ZN5ARGSS4ARPG8AWeather4roxEEmm
                0x000000000805f806                _ZN5ARGSS4ARPG8AWeather6rtypeEEmm
                0x000000000805f92b                _ZN5ARGSS4ARPG8AWeather8rdisposeEm
                0x000000000805f9e3                _ZN5ARGSS4ARPG8AWeather11rinitializeEiPmm
                0x000000000805ff56                _ZN5ARGSS4ARPG8AWeather4InitEv
 *fill*         0x00000000080600aa        0x2 90909090
 .text          0x00000000080600ac      0xbfe ./objs/argss_ruby.o
                0x000000000806020b                _ZN5ARGSS5ARuby10rsave_dataEmmm
                0x0000000008060272                _ZN5ARGSS5ARuby10rload_dataEmm
                0x00000000080603be                _ZN5ARGSS5ARuby4InitEv
                0x0000000008060433                _ZN5ARGSS5ARuby9AddObjectEm
                0x0000000008060470                _ZN5ARGSS5ARuby12RemoveObjectEm
                0x00000000080604aa                _Z10Check_Kindmm
                0x0000000008060516                _Z12Check_Types2mmm
                0x0000000008060624                _Z10Check_Boolm
                0x00000000080606fb                _Z11Check_Classmm
                0x0000000008060818                _Z15Check_Classes_Nmm
                0x0000000008060865                _ZN5ARGSS5ARuby3RunEv
 .text._ZSteqIcSt11char_traitsIcESaIcEEbRKSbIT_T0_T1_EPKS3_
                0x0000000008060caa       0x3c ./objs/argss_ruby.o
                0x0000000008060caa                _ZSteqIcSt11char_traitsIcESaIcEEbRKSbIT_T0_T1_EPKS3_
 *fill*         0x0000000008060ce6        0x2 90909090
 .text          0x0000000008060ce8     0x19f9 ./objs/argss_sprite.o
                0x0000000008060ce8                _ZN5ARGSS7ASprite10rdisposedQEm
                0x0000000008060dc0                _ZN5ARGSS7ASprite11rinitializeEiPmm
                0x0000000008061010                _ZN5ARGSS7ASprite4InitEv
                0x0000000008061546                _ZN5ARGSS7ASprite5CheckEm
                0x0000000008061595                _ZN5ARGSS7ASprite6rtoneEEmm
                0x00000000080615ff                _ZN5ARGSS7ASprite5rtoneEm
                0x0000000008061642                _ZN5ARGSS7ASprite7rcolorEEmm
                0x00000000080616ac                _ZN5ARGSS7ASprite6rcolorEm
                0x00000000080616ef                _ZN5ARGSS7ASprite12rblend_typeEEmm
                0x0000000008061768                _ZN5ARGSS7ASprite11rblend_typeEm
                0x00000000080617ab                _ZN5ARGSS7ASprite9ropacityEEmm
                0x0000000008061813                _ZN5ARGSS7ASprite8ropacityEm
                0x0000000008061856                _ZN5ARGSS7ASprite12rbush_depthEEmm
                0x00000000080618be                _ZN5ARGSS7ASprite11rbush_depthEm
                0x0000000008061901                _ZN5ARGSS7ASprite7rflipyEEmm
                0x0000000008061965                _ZN5ARGSS7ASprite6rflipyEm
                0x00000000080619a8                _ZN5ARGSS7ASprite7rflipxEEmm
                0x0000000008061a0c                _ZN5ARGSS7ASprite6rflipxEm
                0x0000000008061a4f                _ZN5ARGSS7ASprite8rmirrorEEmm
                0x0000000008061ab3                _ZN5ARGSS7ASprite7rmirrorEm
                0x0000000008061af6                _ZN5ARGSS7ASprite7rangleEEmm
                0x0000000008061b71                _ZN5ARGSS7ASprite6rangleEm
                0x0000000008061bb4                _ZN5ARGSS7ASprite8rzoom_yEEmm
                0x0000000008061c2f                _ZN5ARGSS7ASprite7rzoom_yEm
                0x0000000008061c72                _ZN5ARGSS7ASprite8rzoom_xEEmm
                0x0000000008061ced                _ZN5ARGSS7ASprite7rzoom_xEm
                0x0000000008061d30                _ZN5ARGSS7ASprite4royEEmm
                0x0000000008061d98                _ZN5ARGSS7ASprite3royEm
                0x0000000008061ddb                _ZN5ARGSS7ASprite4roxEEmm
                0x0000000008061e43                _ZN5ARGSS7ASprite3roxEm
                0x0000000008061e86                _ZN5ARGSS7ASprite3rzEEmm
                0x0000000008061ef6                _ZN5ARGSS7ASprite2rzEm
                0x0000000008061f39                _ZN5ARGSS7ASprite3ryEEmm
                0x0000000008061fa1                _ZN5ARGSS7ASprite3rfyEm
                0x0000000008061fee                _ZN5ARGSS7ASprite2ryEm
                0x000000000806203b                _ZN5ARGSS7ASprite3rxEEmm
                0x00000000080620a3                _ZN5ARGSS7ASprite3rfxEm
                0x00000000080620f0                _ZN5ARGSS7ASprite2rxEm
                0x000000000806213d                _ZN5ARGSS7ASprite9rvisibleEEmm
                0x00000000080621a1                _ZN5ARGSS7ASprite8rvisibleEm
                0x00000000080621e4                _ZN5ARGSS7ASprite10rsrc_rectEEmm
                0x000000000806224e                _ZN5ARGSS7ASprite9rsrc_rectEm
                0x0000000008062291                _ZN5ARGSS7ASprite8rbitmapEEmm
                0x00000000080623d2                _ZN5ARGSS7ASprite7rbitmapEm
                0x0000000008062415                _ZN5ARGSS7ASprite10rviewportEEmm
                0x0000000008062494                _ZN5ARGSS7ASprite9rviewportEm
                0x00000000080624d7                _ZN5ARGSS7ASprite7rheightEm
                0x0000000008062527                _ZN5ARGSS7ASprite6rwidthEm
                0x0000000008062577                _ZN5ARGSS7ASprite7rupdateEm
                0x00000000080625c2                _ZN5ARGSS7ASprite6rflashEmmm
                0x0000000008062681                _ZN5ARGSS7ASprite8rdisposeEm
 *fill*         0x00000000080626e1        0x3 90909090
 .text          0x00000000080626e4      0xcc5 ./objs/argss_table.o
                0x000000000806277f                _ZN5ARGSS6ATable5rloadEmm
                0x00000000080628e9                _ZN5ARGSS6ATable5rarefEiPmm
                0x0000000008062a50                _ZN5ARGSS6ATable6rzsizeEm
                0x0000000008062a86                _ZN5ARGSS6ATable6rysizeEm
                0x0000000008062abc                _ZN5ARGSS6ATable6rxsizeEm
                0x0000000008062af2                _ZN5ARGSS6ATable11rinitializeEiPmm
                0x0000000008062c37                _ZN5ARGSS6ATable5rdumpEiPmm
                0x0000000008062de5                _ZN5ARGSS6ATable5rasetEiPmm
                0x0000000008062faf                _ZN5ARGSS6ATable7rresizeEiPmm
                0x0000000008063155                _ZN5ARGSS6ATable4InitEv
                0x000000000806327b                _ZN5ARGSS6ATable3NewEi
                0x00000000080632ca                _ZN5ARGSS6ATable3NewEii
                0x0000000008063332                _ZN5ARGSS6ATable3NewEiii
 *fill*         0x00000000080633a9        0x3 90909090
 .text          0x00000000080633ac      0xacf ./objs/argss_tilemap_xp.o
                0x00000000080633ac                _ZN5ARGSS8ATilemap9rdisposeQEm
                0x000000000806345e                _ZN5ARGSS8ATilemap11rinitializeEiPmm
                0x000000000806357b                _ZN5ARGSS8ATilemap4InitEv
                0x00000000080637e0                _ZN5ARGSS8ATilemap13CheckDisposedEm
                0x000000000806382f                _ZN5ARGSS8ATilemap4royEEmm
                0x0000000008063897                _ZN5ARGSS8ATilemap3royEm
                0x00000000080638da                _ZN5ARGSS8ATilemap4roxEEmm
                0x0000000008063942                _ZN5ARGSS8ATilemap3roxEm
                0x0000000008063985                _ZN5ARGSS8ATilemap9rvisibleEEmm
                0x00000000080639e9                _ZN5ARGSS8ATilemap8rvisibleEm
                0x0000000008063a2c                _ZN5ARGSS8ATilemap12rprioritiesEEmm
                0x0000000008063a96                _ZN5ARGSS8ATilemap11rprioritiesEm
                0x0000000008063ad9                _ZN5ARGSS8ATilemap12rflash_dataEEmm
                0x0000000008063b43                _ZN5ARGSS8ATilemap11rflash_dataEm
                0x0000000008063b86                _ZN5ARGSS8ATilemap10rmap_dataEEmm
                0x0000000008063bf0                _ZN5ARGSS8ATilemap9rmap_dataEm
                0x0000000008063c33                _ZN5ARGSS8ATilemap10rautotilesEm
                0x0000000008063c76                _ZN5ARGSS8ATilemap9rtilesetEEmm
                0x0000000008063ce0                _ZN5ARGSS8ATilemap8rtilesetEm
                0x0000000008063d23                _ZN5ARGSS8ATilemap10rviewportEEmm
                0x0000000008063d8d                _ZN5ARGSS8ATilemap9rviewportEm
                0x0000000008063dd0                _ZN5ARGSS8ATilemap7rupdateEm
                0x0000000008063e1b                _ZN5ARGSS8ATilemap8rdisposeEm
 *fill*         0x0000000008063e7b        0x1 90909090
 .text          0x0000000008063e7c      0x216 ./objs/argss_tilemapautotiles_xp.o
                0x0000000008063ec6                _ZN5ARGSS17ATilemapAutotiles5rasetEmmm
                0x0000000008063f31                _ZN5ARGSS17ATilemapAutotiles5rarefEmm
                0x0000000008063f88                _ZN5ARGSS17ATilemapAutotiles11rinitializeEm
                0x0000000008063fd0                _ZN5ARGSS17ATilemapAutotiles4InitEv
                0x000000000806405a                _ZN5ARGSS17ATilemapAutotiles3NewEv
 *fill*         0x0000000008064092        0x2 90909090
 .text          0x0000000008064094      0x9de ./objs/argss_tone.o
                0x0000000008064094                _ZN5ARGSS5ATone5rloadEmm
                0x000000000806415c                _ZN5ARGSS5ATone5rgrayEm
                0x0000000008064192                _ZN5ARGSS5ATone5rblueEm
                0x00000000080641c8                _ZN5ARGSS5ATone6rgreenEm
                0x00000000080641fe                _ZN5ARGSS5ATone4rredEm
                0x0000000008064234                _ZN5ARGSS5ATone5rdumpEiPmm
                0x0000000008064314                _ZN5ARGSS5ATone8rinspectEm
                0x00000000080643f1                _Z12CapToneValued
                0x0000000008064447                _ZN5ARGSS5ATone6rgrayEEmm
                0x000000000806449e                _ZN5ARGSS5ATone6rblueEEmm
                0x00000000080644f5                _ZN5ARGSS5ATone7rgreenEEmm
                0x000000000806454c                _ZN5ARGSS5ATone5rredEEmm
                0x00000000080645a3                _ZN5ARGSS5ATone4rsetEiPmm
                0x00000000080646ba                _ZN5ARGSS5ATone11rinitializeEiPmm
                0x00000000080647ce                _ZN5ARGSS5ATone4InitEv
                0x000000000806495c                _ZN5ARGSS5ATone3NewEdddd
                0x00000000080649f1                _ZN5ARGSS5ATone3NewEv
 *fill*         0x0000000008064a72        0x2 90909090
 .text          0x0000000008064a74      0xa9a ./objs/argss_viewport.o
                0x0000000008064a74                _ZN5ARGSS9AViewport10rdisposedQEm
                0x0000000008064b26                _ZN5ARGSS9AViewport11rinitializeEiPmm
                0x0000000008064c7c                _ZN5ARGSS9AViewport4InitEv
                0x0000000008064ea6                _ZN5ARGSS9AViewport13CheckDisposedEm
                0x0000000008064ef5                _ZN5ARGSS9AViewport6rtoneEEmm
                0x0000000008064f5f                _ZN5ARGSS9AViewport5rtoneEm
                0x0000000008064fa2                _ZN5ARGSS9AViewport7rcolorEEmm
                0x000000000806500c                _ZN5ARGSS9AViewport6rcolorEm
                0x000000000806504f                _ZN5ARGSS9AViewport4royEEmm
                0x00000000080650b7                _ZN5ARGSS9AViewport3royEm
                0x00000000080650fa                _ZN5ARGSS9AViewport4roxEEmm
                0x0000000008065162                _ZN5ARGSS9AViewport3roxEm
                0x00000000080651a5                _ZN5ARGSS9AViewport3rzEEmm
                0x000000000806520d                _ZN5ARGSS9AViewport2rzEm
                0x0000000008065250                _ZN5ARGSS9AViewport9rvisibleEEmm
                0x00000000080652b4                _ZN5ARGSS9AViewport8rvisibleEm
                0x00000000080652f7                _ZN5ARGSS9AViewport6rrectEEmm
                0x0000000008065361                _ZN5ARGSS9AViewport5rrectEm
                0x00000000080653a4                _ZN5ARGSS9AViewport7rupdateEm
                0x00000000080653ef                _ZN5ARGSS9AViewport6rflashEmmm
                0x00000000080654ae                _ZN5ARGSS9AViewport8rdisposeEm
 *fill*         0x000000000806550e        0x2 90909090
 .text          0x0000000008065510     0x15c7 ./objs/argss_window_xp.o
                0x0000000008065510                _ZN5ARGSS7AWindow10rdisposedQEm
                0x00000000080655e8                _ZN5ARGSS7AWindow11rinitializeEiPmm
                0x0000000008065810                _Z15CapOpacityValuei
                0x0000000008065850                _ZN5ARGSS7AWindow4InitEv
                0x0000000008065cd0                _ZN5ARGSS7AWindow13CheckDisposedEm
                0x0000000008065d1f                _ZN5ARGSS7AWindow18rcontents_opacityEEmm
                0x0000000008065da0                _ZN5ARGSS7AWindow17rcontents_opacityEm
                0x0000000008065de3                _ZN5ARGSS7AWindow14rback_opacityEEmm
                0x0000000008065e64                _ZN5ARGSS7AWindow13rback_opacityEm
                0x0000000008065ea7                _ZN5ARGSS7AWindow9ropacityEEmm
                0x0000000008065f28                _ZN5ARGSS7AWindow8ropacityEm
                0x0000000008065f6b                _ZN5ARGSS7AWindow4royEEmm
                0x0000000008065fd3                _ZN5ARGSS7AWindow3royEm
                0x0000000008066016                _ZN5ARGSS7AWindow4roxEEmm
                0x000000000806607e                _ZN5ARGSS7AWindow3roxEm
                0x00000000080660c1                _ZN5ARGSS7AWindow3rzEEmm
                0x0000000008066129                _ZN5ARGSS7AWindow2rzEm
                0x000000000806616c                _ZN5ARGSS7AWindow8rheightEEmm
                0x00000000080661df                _ZN5ARGSS7AWindow7rheightEm
                0x0000000008066222                _ZN5ARGSS7AWindow7rwidthEEmm
                0x0000000008066295                _ZN5ARGSS7AWindow6rwidthEm
                0x00000000080662d8                _ZN5ARGSS7AWindow3ryEEmm
                0x0000000008066340                _ZN5ARGSS7AWindow3rfyEm
                0x000000000806638d                _ZN5ARGSS7AWindow2ryEm
                0x00000000080663da                _ZN5ARGSS7AWindow3rxEEmm
                0x0000000008066442                _ZN5ARGSS7AWindow3rfxEm
                0x000000000806648f                _ZN5ARGSS7AWindow2rxEm
                0x00000000080664dc                _ZN5ARGSS7AWindow7rpauseEEmm
                0x0000000008066540                _ZN5ARGSS7AWindow6rpauseEm
                0x0000000008066583                _ZN5ARGSS7AWindow9rvisibleEEmm
                0x00000000080665e7                _ZN5ARGSS7AWindow8rvisibleEm
                0x000000000806662a                _ZN5ARGSS7AWindow8ractiveEEmm
                0x000000000806668e                _ZN5ARGSS7AWindow7ractiveEm
                0x00000000080666d1                _ZN5ARGSS7AWindow13rcursor_rectEEmm
                0x000000000806673b                _ZN5ARGSS7AWindow12rcursor_rectEm
                0x000000000806677e                _ZN5ARGSS7AWindow9rstretchEEmm
                0x00000000080667e2                _ZN5ARGSS7AWindow8rstretchEm
                0x0000000008066825                _ZN5ARGSS7AWindow10rcontentsEEmm
                0x000000000806688f                _ZN5ARGSS7AWindow9rcontentsEm
                0x00000000080668d2                _ZN5ARGSS7AWindow12rwindowskinEEmm
                0x000000000806693c                _ZN5ARGSS7AWindow11rwindowskinEm
                0x000000000806697f                _ZN5ARGSS7AWindow10rviewportEEmm
                0x00000000080669e9                _ZN5ARGSS7AWindow9rviewportEm
                0x0000000008066a2c                _ZN5ARGSS7AWindow7rupdateEm
                0x0000000008066a77                _ZN5ARGSS7AWindow8rdisposeEm
 *fill*         0x0000000008066ad7        0x1 90909090
 .text          0x0000000008066ad8      0xa17 ./objs/audio.o
                0x0000000008066ad8                _Z9me_finishv
                0x0000000008066b3e                _ZN5Audio4InitEv
                0x0000000008066be7                _ZN5Audio5PauseEv
                0x0000000008066c1e                _ZN5Audio8ContinueEv
                0x0000000008066c55                _ZN5Audio8BGM_StopEv
                0x0000000008066ca0                _ZN5Audio8BGM_FadeEi
                0x0000000008066cf4                _ZN5Audio8BGS_StopEv
                0x0000000008066d40                _ZN5Audio8BGS_FadeEi
                0x0000000008066d7a                _ZN5Audio7ME_StopEv
                0x0000000008066db8                _ZN5Audio7ME_FadeEi
                0x0000000008066e01                _ZN5Audio7ME_PlayERKSsii
                0x0000000008066f6b                _ZN5Audio8BGS_PlayERKSsii
                0x00000000080670c7                _ZN5Audio8BGM_PlayERKSsii
                0x0000000008067232                _ZN5Audio7SE_StopEv
                0x00000000080672c7                _ZN5Audio7SE_PlayERKSsii
 *fill*         0x00000000080674ef        0x1 90909090
 .text._ZNSt8_Rb_treeIiSt4pairIKiP9Mix_ChunkESt10_Select1stIS4_ESt4lessIiESaIS4_EE5eraseESt17_Rb_tree_iteratorIS4_E
                0x00000000080674f0       0x4a ./objs/audio.o
                0x00000000080674f0                _ZNSt8_Rb_treeIiSt4pairIKiP9Mix_ChunkESt10_Select1stIS4_ESt4lessIiESaIS4_EE5eraseESt17_Rb_tree_iteratorIS4_E
 .text._ZNSt8_Rb_treeIiSt4pairIKiP9Mix_ChunkESt10_Select1stIS4_ESt4lessIiESaIS4_EE13_Rb_tree_implIS8_Lb0EEC2Ev
                0x000000000806753a       0x4b ./objs/audio.o
                0x000000000806753a                _ZNSt8_Rb_treeIiSt4pairIKiP9Mix_ChunkESt10_Select1stIS4_ESt4lessIiESaIS4_EE13_Rb_tree_implIS8_Lb0EEC1Ev
                0x000000000806753a                _ZNSt8_Rb_treeIiSt4pairIKiP9Mix_ChunkESt10_Select1stIS4_ESt4lessIiESaIS4_EE13_Rb_tree_implIS8_Lb0EEC2Ev
 *fill*         0x0000000008067585        0x1 90909090
 .text._ZNSt8_Rb_treeIiSt4pairIKiP9Mix_ChunkESt10_Select1stIS4_ESt4lessIiESaIS4_EE8_M_eraseEPSt13_Rb_tree_nodeIS4_E
                0x0000000008067586       0x59 ./objs/audio.o
                0x0000000008067586                _ZNSt8_Rb_treeIiSt4pairIKiP9Mix_ChunkESt10_Select1stIS4_ESt4lessIiESaIS4_EE8_M_eraseEPSt13_Rb_tree_nodeIS4_E
 *fill*         0x00000000080675df        0x1 90909090
 .text._ZNSt8_Rb_treeIiSt4pairIKiP9Mix_ChunkESt10_Select1stIS4_ESt4lessIiESaIS4_EED2Ev
                0x00000000080675e0       0x39 ./objs/audio.o
                0x00000000080675e0                _ZNSt8_Rb_treeIiSt4pairIKiP9Mix_ChunkESt10_Select1stIS4_ESt4lessIiESaIS4_EED1Ev
                0x00000000080675e0                _ZNSt8_Rb_treeIiSt4pairIKiP9Mix_ChunkESt10_Select1stIS4_ESt4lessIiESaIS4_EED2Ev
 *fill*         0x0000000008067619        0x1 90909090
 .text._ZNSt3mapIiP9Mix_ChunkSt4lessIiESaISt4pairIKiS1_EEED2Ev
                0x000000000806761a       0x34 ./objs/audio.o
                0x000000000806761a                _ZNSt3mapIiP9Mix_ChunkSt4lessIiESaISt4pairIKiS1_EEED1Ev
                0x000000000806761a                _ZNSt3mapIiP9Mix_ChunkSt4lessIiESaISt4pairIKiS1_EEED2Ev
 .text._ZNSt8_Rb_treeIiSt4pairIKiP9Mix_ChunkESt10_Select1stIS4_ESt4lessIiESaIS4_EE5clearEv
                0x000000000806764e       0x53 ./objs/audio.o
                0x000000000806764e                _ZNSt8_Rb_treeIiSt4pairIKiP9Mix_ChunkESt10_Select1stIS4_ESt4lessIiESaIS4_EE5clearEv
 *fill*         0x00000000080676a1        0x1 90909090
 .text._ZNSt8_Rb_treeIiSt4pairIKiP9Mix_ChunkESt10_Select1stIS4_ESt4lessIiESaIS4_EE11lower_boundERS1_
                0x00000000080676a2       0x5f ./objs/audio.o
                0x00000000080676a2                _ZNSt8_Rb_treeIiSt4pairIKiP9Mix_ChunkESt10_Select1stIS4_ESt4lessIiESaIS4_EE11lower_boundERS1_
 *fill*         0x0000000008067701        0x1 90909090
 .text._ZNSt8_Rb_treeIiSt4pairIKiP9Mix_ChunkESt10_Select1stIS4_ESt4lessIiESaIS4_EE10_M_insert_EPKSt18_Rb_tree_node_baseSD_RKS4_
                0x0000000008067702       0xac ./objs/audio.o
                0x0000000008067702                _ZNSt8_Rb_treeIiSt4pairIKiP9Mix_ChunkESt10_Select1stIS4_ESt4lessIiESaIS4_EE10_M_insert_EPKSt18_Rb_tree_node_baseSD_RKS4_
 .text._ZNSt8_Rb_treeIiSt4pairIKiP9Mix_ChunkESt10_Select1stIS4_ESt4lessIiESaIS4_EE16_M_insert_uniqueERKS4_
                0x00000000080677ae       0xb4 ./objs/audio.o
                0x00000000080677ae                _ZNSt8_Rb_treeIiSt4pairIKiP9Mix_ChunkESt10_Select1stIS4_ESt4lessIiESaIS4_EE16_M_insert_uniqueERKS4_
 .text._ZNSt8_Rb_treeIiSt4pairIKiP9Mix_ChunkESt10_Select1stIS4_ESt4lessIiESaIS4_EE17_M_insert_unique_ESt23_Rb_tree_const_iteratorIS4_ERKS4_
                0x0000000008067862      0x102 ./objs/audio.o
                0x0000000008067862                _ZNSt8_Rb_treeIiSt4pairIKiP9Mix_ChunkESt10_Select1stIS4_ESt4lessIiESaIS4_EE17_M_insert_unique_ESt23_Rb_tree_const_iteratorIS4_ERKS4_
 .text._ZNSt3mapIiP9Mix_ChunkSt4lessIiESaISt4pairIKiS1_EEE6insertESt17_Rb_tree_iteratorIS6_ERKS6_
                0x0000000008067964       0x43 ./objs/audio.o
                0x0000000008067964                _ZNSt3mapIiP9Mix_ChunkSt4lessIiESaISt4pairIKiS1_EEE6insertESt17_Rb_tree_iteratorIS6_ERKS6_
 *fill*         0x00000000080679a7        0x1 90909090
 .text._ZNSt3mapIiP9Mix_ChunkSt4lessIiESaISt4pairIKiS1_EEEixERS5_
                0x00000000080679a8       0x79 ./objs/audio.o
                0x00000000080679a8                _ZNSt3mapIiP9Mix_ChunkSt4lessIiESaISt4pairIKiS1_EEEixERS5_
 *fill*         0x0000000008067a21        0x3 90909090
 .text          0x0000000008067a24     0x23b6 ./objs/bitmap.o
                0x0000000008067a6e                _ZN6Bitmap7ChangedEv
                0x0000000008067afc                _ZN6Bitmap14RefreshBitmapsEv
                0x0000000008067b52                _ZN6Bitmap7RefreshEv
                0x0000000008067c4c                _ZN6Bitmap10BindBitmapEv
                0x0000000008067c88                _ZN6Bitmap9GetPixelsEv
                0x0000000008067cb8                _ZN6Bitmap8GetWidthEv
                0x0000000008067ce8                _ZN6Bitmap9GetHeightEv
                0x0000000008067d18                _ZN6Bitmap4CopyEiiPS_4Rect
                0x0000000008067eb0                _ZN6Bitmap4BlitEiiPS_4Recti
                0x0000000008068138                _ZN6Bitmap8FillRectE4Rect5Color
                0x00000000080681fc                _ZN6Bitmap5ClearEv
                0x0000000008068244                _ZN6Bitmap5ClearE5Color
                0x000000000806829c                _ZN6Bitmap8GetPixelEii
                0x0000000008068326                _ZN6Bitmap8SetPixelEii5Color
                0x00000000080683b0                _ZN6Bitmap9HueChangeEd
                0x0000000008068500                _ZN6Bitmap9SatChangeEd
                0x0000000008068650                _ZN6Bitmap9LumChangeEd
                0x000000000806879c                _ZN6Bitmap9HSLChangeEddd
                0x0000000008068908                _ZN6Bitmap9HSLChangeEddd4Rect
                0x0000000008068ac6                _ZN6Bitmap11GetTextSizeERKSs
                0x0000000008068b86                _ZN6Bitmap16GradientFillRectE4Rect5ColorS1_b
                0x0000000008068bb0                _ZN6Bitmap9ClearRectE4Rect
                0x0000000008068bda                _ZN6Bitmap4BlurEv
                0x0000000008068c04                _ZN6Bitmap10RadialBlurEii
                0x0000000008068c2e                _ZN6Bitmap10ToneChangeE4Tone
                0x0000000008068f8a                _ZN6Bitmap13OpacityChangeEii
                0x0000000008068fb4                _ZN6Bitmap4FlipEbb
                0x0000000008068fde                _ZN6Bitmap4ZoomEdd
                0x0000000008069008                _ZN6Bitmap6RotateEf
                0x0000000008069032                _ZN6Bitmap7GetRectEv
                0x000000000806907a                _ZN6BitmapD1Ev
                0x000000000806907a                _ZN6BitmapD2Ev
                0x00000000080690e4                _ZN6Bitmap10IsDisposedEm
                0x000000000806912a                _ZN6Bitmap14DisposeBitmapsEv
                0x00000000080691a4                _ZN6Bitmap7DisposeEm
                0x0000000008069228                _ZN6Bitmap3GetEm
                0x0000000008069268                _ZN6BitmapC1EPS_4Rect
                0x0000000008069268                _ZN6BitmapC2EPS_4Rect
                0x0000000008069354                _ZN6BitmapC2Emii
                0x0000000008069354                _ZN6BitmapC1Emii
                0x00000000080693fe                _ZN6Bitmap3NewEmii
                0x000000000806947a                _ZN6BitmapC1EmRKSs
                0x000000000806947a                _ZN6BitmapC2EmRKSs
                0x00000000080695ea                _ZN6Bitmap3NewEmRKSs
                0x0000000008069660                _ZN6BitmapC1Eii
                0x0000000008069660                _ZN6BitmapC2Eii
                0x00000000080696f4                _ZN6Bitmap8ResampleEii4Rect
                0x0000000008069814                _ZN6Bitmap8TextDrawE4RectRKSsi
                0x0000000008069c0c                _ZN6Bitmap11StretchBlitE4RectPS_S0_i
 .text._ZNSt6vectorIjSaIjEED2Ev
                0x0000000008069dda       0x47 ./objs/bitmap.o
                0x0000000008069dda                _ZNSt6vectorIjSaIjEED1Ev
                0x0000000008069dda                _ZNSt6vectorIjSaIjEED2Ev
 *fill*         0x0000000008069e21        0x1 90909090
 .text._ZNKSt8_Rb_treeImSt4pairIKmP6BitmapESt10_Select1stIS4_ESt4lessImESaIS4_EE4findERS1_
                0x0000000008069e22       0x72 ./objs/bitmap.o
                0x0000000008069e22                _ZNKSt8_Rb_treeImSt4pairIKmP6BitmapESt10_Select1stIS4_ESt4lessImESaIS4_EE4findERS1_
 .text._ZNKSt3mapImP6BitmapSt4lessImESaISt4pairIKmS1_EEE5countERS5_
                0x0000000008069e94       0x4b ./objs/bitmap.o
                0x0000000008069e94                _ZNKSt3mapImP6BitmapSt4lessImESaISt4pairIKmS1_EEE5countERS5_
 *fill*         0x0000000008069edf        0x1 90909090
 .text._ZNSt8_Rb_treeImSt4pairIKmP6BitmapESt10_Select1stIS4_ESt4lessImESaIS4_EE4findERS1_
                0x0000000008069ee0       0x72 ./objs/bitmap.o
                0x0000000008069ee0                _ZNSt8_Rb_treeImSt4pairIKmP6BitmapESt10_Select1stIS4_ESt4lessImESaIS4_EE4findERS1_
 .text._ZNSt8_Rb_treeImSt4pairIKmP6BitmapESt10_Select1stIS4_ESt4lessImESaIS4_EE5eraseESt17_Rb_tree_iteratorIS4_E
                0x0000000008069f52       0x4a ./objs/bitmap.o
                0x0000000008069f52                _ZNSt8_Rb_treeImSt4pairIKmP6BitmapESt10_Select1stIS4_ESt4lessImESaIS4_EE5eraseESt17_Rb_tree_iteratorIS4_E
 .text._ZNSt8_Rb_treeImSt4pairIKmP6BitmapESt10_Select1stIS4_ESt4lessImESaIS4_EE13_Rb_tree_implIS8_Lb0EEC2Ev
                0x0000000008069f9c       0x4b ./objs/bitmap.o
                0x0000000008069f9c                _ZNSt8_Rb_treeImSt4pairIKmP6BitmapESt10_Select1stIS4_ESt4lessImESaIS4_EE13_Rb_tree_implIS8_Lb0EEC1Ev
                0x0000000008069f9c                _ZNSt8_Rb_treeImSt4pairIKmP6BitmapESt10_Select1stIS4_ESt4lessImESaIS4_EE13_Rb_tree_implIS8_Lb0EEC2Ev
 *fill*         0x0000000008069fe7        0x1 90909090
 .text._ZNSt8_Rb_treeImSt4pairIKmP6BitmapESt10_Select1stIS4_ESt4lessImESaIS4_EE8_M_eraseEPSt13_Rb_tree_nodeIS4_E
                0x0000000008069fe8       0x59 ./objs/bitmap.o
                0x0000000008069fe8                _ZNSt8_Rb_treeImSt4pairIKmP6BitmapESt10_Select1stIS4_ESt4lessImESaIS4_EE8_M_eraseEPSt13_Rb_tree_nodeIS4_E
 *fill*         0x000000000806a041        0x1 90909090
 .text._ZNSt8_Rb_treeImSt4pairIKmP6BitmapESt10_Select1stIS4_ESt4lessImESaIS4_EED2Ev
                0x000000000806a042       0x39 ./objs/bitmap.o
                0x000000000806a042                _ZNSt8_Rb_treeImSt4pairIKmP6BitmapESt10_Select1stIS4_ESt4lessImESaIS4_EED1Ev
                0x000000000806a042                _ZNSt8_Rb_treeImSt4pairIKmP6BitmapESt10_Select1stIS4_ESt4lessImESaIS4_EED2Ev
 *fill*         0x000000000806a07b        0x1 90909090
 .text._ZNSt3mapImP6BitmapSt4lessImESaISt4pairIKmS1_EEED2Ev
                0x000000000806a07c       0x34 ./objs/bitmap.o
                0x000000000806a07c                _ZNSt3mapImP6BitmapSt4lessImESaISt4pairIKmS1_EEED1Ev
                0x000000000806a07c                _ZNSt3mapImP6BitmapSt4lessImESaISt4pairIKmS1_EEED2Ev
 .text._ZNSt8_Rb_treeImSt4pairIKmP6BitmapESt10_Select1stIS4_ESt4lessImESaIS4_EE5clearEv
                0x000000000806a0b0       0x53 ./objs/bitmap.o
                0x000000000806a0b0                _ZNSt8_Rb_treeImSt4pairIKmP6BitmapESt10_Select1stIS4_ESt4lessImESaIS4_EE5clearEv
 *fill*         0x000000000806a103        0x1 90909090
 .text._ZNSt8_Rb_treeImSt4pairIKmP6BitmapESt10_Select1stIS4_ESt4lessImESaIS4_EE11lower_boundERS1_
                0x000000000806a104       0x5f ./objs/bitmap.o
                0x000000000806a104                _ZNSt8_Rb_treeImSt4pairIKmP6BitmapESt10_Select1stIS4_ESt4lessImESaIS4_EE11lower_boundERS1_
 *fill*         0x000000000806a163        0x1 90909090
 .text._ZNKSt6vectorIjSaIjEE12_M_check_lenEjPKc
                0x000000000806a164       0x6a ./objs/bitmap.o
                0x000000000806a164                _ZNKSt6vectorIjSaIjEE12_M_check_lenEjPKc
 .text._ZNSt8_Rb_treeImSt4pairIKmP6BitmapESt10_Select1stIS4_ESt4lessImESaIS4_EE10_M_insert_EPKSt18_Rb_tree_node_baseSD_RKS4_
                0x000000000806a1ce       0xac ./objs/bitmap.o
                0x000000000806a1ce                _ZNSt8_Rb_treeImSt4pairIKmP6BitmapESt10_Select1stIS4_ESt4lessImESaIS4_EE10_M_insert_EPKSt18_Rb_tree_node_baseSD_RKS4_
 .text._ZNSt8_Rb_treeImSt4pairIKmP6BitmapESt10_Select1stIS4_ESt4lessImESaIS4_EE16_M_insert_uniqueERKS4_
                0x000000000806a27a       0xb4 ./objs/bitmap.o
                0x000000000806a27a                _ZNSt8_Rb_treeImSt4pairIKmP6BitmapESt10_Select1stIS4_ESt4lessImESaIS4_EE16_M_insert_uniqueERKS4_
 .text._ZNSt8_Rb_treeImSt4pairIKmP6BitmapESt10_Select1stIS4_ESt4lessImESaIS4_EE17_M_insert_unique_ESt23_Rb_tree_const_iteratorIS4_ERKS4_
                0x000000000806a32e      0x102 ./objs/bitmap.o
                0x000000000806a32e                _ZNSt8_Rb_treeImSt4pairIKmP6BitmapESt10_Select1stIS4_ESt4lessImESaIS4_EE17_M_insert_unique_ESt23_Rb_tree_const_iteratorIS4_ERKS4_
 .text._ZNSt3mapImP6BitmapSt4lessImESaISt4pairIKmS1_EEE6insertESt17_Rb_tree_iteratorIS6_ERKS6_
                0x000000000806a430       0x43 ./objs/bitmap.o
                0x000000000806a430                _ZNSt3mapImP6BitmapSt4lessImESaISt4pairIKmS1_EEE6insertESt17_Rb_tree_iteratorIS6_ERKS6_
 *fill*         0x000000000806a473        0x1 90909090
 .text._ZNSt3mapImP6BitmapSt4lessImESaISt4pairIKmS1_EEEixERS5_
                0x000000000806a474       0x79 ./objs/bitmap.o
                0x000000000806a474                _ZNSt3mapImP6BitmapSt4lessImESaISt4pairIKmS1_EEEixERS5_
 .text._ZNSt20__copy_move_backwardILb0ELb1ESt26random_access_iterator_tagE13__copy_move_bIjEEPT_PKS3_S6_S4_
                0x000000000806a4ed       0x5e ./objs/bitmap.o
                0x000000000806a4ed                _ZNSt20__copy_move_backwardILb0ELb1ESt26random_access_iterator_tagE13__copy_move_bIjEEPT_PKS3_S6_S4_
 .text._ZNSt11__copy_moveILb0ELb1ESt26random_access_iterator_tagE8__copy_mIjEEPT_PKS3_S6_S4_
                0x000000000806a54b       0x57 ./objs/bitmap.o
                0x000000000806a54b                _ZNSt11__copy_moveILb0ELb1ESt26random_access_iterator_tagE8__copy_mIjEEPT_PKS3_S6_S4_
 .text._ZNSt6vectorIjSaIjEE14_M_fill_insertEN9__gnu_cxx17__normal_iteratorIPjS1_EEjRKj
                0x000000000806a5a2      0x1bd ./objs/bitmap.o
                0x000000000806a5a2                _ZNSt6vectorIjSaIjEE14_M_fill_insertEN9__gnu_cxx17__normal_iteratorIPjS1_EEjRKj
 *fill*         0x000000000806a75f        0x1 90909090
 .text._ZNSt6vectorIjSaIjEE6resizeEjj
                0x000000000806a760       0x66 ./objs/bitmap.o
                0x000000000806a760                _ZNSt6vectorIjSaIjEE6resizeEjj
 *fill*         0x000000000806a7c6        0x2 90909090
 .text          0x000000000806a7c8      0x1c5 ./objs/buffer.o
                0x000000000806a7c8                _ZN6BufferC2Ei
                0x000000000806a7c8                _ZN6BufferC1Ei
                0x000000000806a814                _ZN6BufferC2EPKci
                0x000000000806a814                _ZN6BufferC1EPKci
                0x000000000806a862                _ZN6Buffer11WriteStringERKSs
                0x000000000806a8b2                _ZN6Buffer10ReadStringEv
                0x000000000806a946                _ZN6BufferD2Ev
                0x000000000806a946                _ZN6BufferD1Ev
 *fill*         0x000000000806a98d        0x3 90909090
 .text          0x000000000806a990      0x36b ./objs/color.o
                0x000000000806a990                _ZN5ColorC2Ev
                0x000000000806a990                _ZN5ColorC1Ev
                0x000000000806a9d8                _ZN5ColorC1Em
                0x000000000806a9d8                _ZN5ColorC2Em
                0x000000000806aa6e                _ZN5ColorC1Eiiii
                0x000000000806aa6e                _ZN5ColorC2Eiiii
                0x000000000806aab2                _ZN5ColorD2Ev
                0x000000000806aab2                _ZN5ColorD1Ev
                0x000000000806aadc                _ZN5Color3SetEm
                0x000000000806ab72                _ZN5Color8GetARGSSEv
                0x000000000806abfa                _ZN5Color9GetUint32Ev
                0x000000000806ac92                _ZN5Color9NewUint32Ej
 *fill*         0x000000000806acfb        0x1 90909090
 .text          0x000000000806acfc      0x162 ./objs/console_qt.o
                0x000000000806acfc                _ZN7Console4InitEv
                0x000000000806ad25                _ZN7Console8SetTitleEPc
                0x000000000806ad4e                _ZN7Console8SetLinesEi
                0x000000000806ad77                _ZN7Console4FreeEv
                0x000000000806ada0                _ZN7Console6ActiveEv
                0x000000000806adcb                _ZN7Console5WriteERKSs
 *fill*         0x000000000806ae5e        0x2 90909090
 .text          0x000000000806ae60      0xb23 ./objs/filefinder_qt.o
                0x000000000806aef6                _ZN10FileFinder4InitEv
                0x000000000806af33                _Z7fexistsRKSs
                0x000000000806b098                _Z7slasherRKSs
                0x000000000806b118                _ZN10FileFinder8FindFontERKSs
                0x000000000806b27f                _ZN10FileFinder9FindMusicERKSs
                0x000000000806b5b1                _ZN10FileFinder9FindImageERKSs
 .text._ZStneIcSt11char_traitsIcESaIcEEbRKSbIT_T0_T1_EPKS3_
                0x000000000806b983       0x37 ./objs/filefinder_qt.o
                0x000000000806b983                _ZStneIcSt11char_traitsIcESaIcEEbRKSbIT_T0_T1_EPKS3_
 *fill*         0x000000000806b9ba        0x2 90909090
 .text          0x000000000806b9bc      0xe0d ./objs/graphics.o
                0x000000000806b9bc                _ZN8Graphics8SortZObjER4ZObjS1_
                0x000000000806ba46                _ZN8Graphics10InitOpenGLEv
                0x000000000806bb62                _ZN8Graphics4InitEv
                0x000000000806bc4d                _ZN8Graphics10RefreshAllEv
                0x000000000806bcad                _ZN8Graphics9TimerWaitEv
                0x000000000806bce0                _ZN8Graphics13TimerContinueEv
                0x000000000806bd40                _ZN8Graphics6FreezeEv
                0x000000000806bd69                _ZN8Graphics10TransitionEiRKSsi
                0x000000000806bd92                _ZN8Graphics10FrameResetEv
                0x000000000806bdd4                _ZN8Graphics12ResizeScreenEii
                0x000000000806be99                _ZN8Graphics12SnapToBitmapEv
                0x000000000806bec4                _ZN8Graphics12GetFrameRateEv
                0x000000000806bef2                _ZN8Graphics12SetFrameRateEi
                0x000000000806bf37                _ZN8Graphics13GetFrameCountEv
                0x000000000806bf65                _ZN8Graphics13SetFrameCountEi
                0x000000000806bf96                _ZN8Graphics12GetBackColorEv
                0x000000000806bfc9                _ZN8Graphics12SetBackColorEm
                0x000000000806c058                _ZN8Graphics13GetBrightnessEv
                0x000000000806c086                _ZN8Graphics13SetBrightnessEi
                0x000000000806c0b7                _ZN8Graphics10RemoveZObjEm
                0x000000000806c0f0                _ZN8Graphics4ExitEv
                0x000000000806c169                _ZN8Graphics10UpdateZObjEml
                0x000000000806c1f4                _ZN8Graphics12RegisterZObjElmb
                0x000000000806c273                _ZN8Graphics12RegisterZObjElm
                0x000000000806c2f9                _ZN8Graphics9DrawFrameEv
                0x000000000806c44d                _ZN8Graphics6UpdateEv
                0x000000000806c5c0                _ZN8Graphics6FadeInEi
                0x000000000806c63e                _ZN8Graphics7FadeOutEi
                0x000000000806c6ba                _ZN8Graphics4WaitEi
 *fill*         0x000000000806c7c9        0x1 90909090
 .text._ZN15QBasicAtomicInt5derefEv
                0x000000000806c7ca       0x38 ./objs/graphics.o
                0x000000000806c7ca                _ZN15QBasicAtomicInt5derefEv
 .text._ZN7QStringC2EPKc
                0x000000000806c802       0x3f ./objs/graphics.o
                0x000000000806c802                _ZN7QStringC1EPKc
                0x000000000806c802                _ZN7QStringC2EPKc
 *fill*         0x000000000806c841        0x1 90909090
 .text._ZN7QStringD2Ev
                0x000000000806c842       0x58 ./objs/graphics.o
                0x000000000806c842                _ZN7QStringD1Ev
                0x000000000806c842                _ZN7QStringD2Ev
 .text._ZN8WindowUi8SetTitleERKSs
                0x000000000806c89a       0x67 ./objs/graphics.o
                0x000000000806c89a                _ZN8WindowUi8SetTitleERKSs
 *fill*         0x000000000806c901        0x1 90909090
 .text._ZNSt4listI4ZObjSaIS0_EE9push_backERKS0_
                0x000000000806c902       0x5c ./objs/graphics.o
                0x000000000806c902                _ZNSt4listI4ZObjSaIS0_EE9push_backERKS0_
 .text._ZNSt4listI4ZObjSaIS0_EE9remove_ifI14remove_zobj_idEEvT_
                0x000000000806c95e       0x7b ./objs/graphics.o
                0x000000000806c95e                _ZNSt4listI4ZObjSaIS0_EE9remove_ifI14remove_zobj_idEEvT_
 *fill*         0x000000000806c9d9        0x1 90909090
 .text._ZNSt4listI4ZObjSaIS0_EE5mergeIPFbRS0_S4_EEEvRS2_T_
                0x000000000806c9da       0xaf ./objs/graphics.o
                0x000000000806c9da                _ZNSt4listI4ZObjSaIS0_EE5mergeIPFbRS0_S4_EEEvRS2_T_
 *fill*         0x000000000806ca89        0x1 90909090
 .text._ZNSt8_Rb_treeImSt4pairIKmP8DrawableESt10_Select1stIS4_ESt4lessImESaIS4_EE13_Rb_tree_implIS8_Lb0EEC2Ev
                0x000000000806ca8a       0x4b ./objs/graphics.o
                0x000000000806ca8a                _ZNSt8_Rb_treeImSt4pairIKmP8DrawableESt10_Select1stIS4_ESt4lessImESaIS4_EE13_Rb_tree_implIS8_Lb0EEC1Ev
                0x000000000806ca8a                _ZNSt8_Rb_treeImSt4pairIKmP8DrawableESt10_Select1stIS4_ESt4lessImESaIS4_EE13_Rb_tree_implIS8_Lb0EEC2Ev
 *fill*         0x000000000806cad5        0x1 90909090
 .text._ZNSt8_Rb_treeImSt4pairIKmP8DrawableESt10_Select1stIS4_ESt4lessImESaIS4_EE8_M_eraseEPSt13_Rb_tree_nodeIS4_E
                0x000000000806cad6       0x59 ./objs/graphics.o
                0x000000000806cad6                _ZNSt8_Rb_treeImSt4pairIKmP8DrawableESt10_Select1stIS4_ESt4lessImESaIS4_EE8_M_eraseEPSt13_Rb_tree_nodeIS4_E
 *fill*         0x000000000806cb2f        0x1 90909090
 .text._ZNSt8_Rb_treeImSt4pairIKmP8DrawableESt10_Select1stIS4_ESt4lessImESaIS4_EED2Ev
                0x000000000806cb30       0x39 ./objs/graphics.o
                0x000000000806cb30                _ZNSt8_Rb_treeImSt4pairIKmP8DrawableESt10_Select1stIS4_ESt4lessImESaIS4_EED1Ev
                0x000000000806cb30                _ZNSt8_Rb_treeImSt4pairIKmP8DrawableESt10_Select1stIS4_ESt4lessImESaIS4_EED2Ev
 *fill*         0x000000000806cb69        0x1 90909090
 .text._ZNSt3mapImP8DrawableSt4lessImESaISt4pairIKmS1_EEED2Ev
                0x000000000806cb6a       0x34 ./objs/graphics.o
                0x000000000806cb6a                _ZNSt3mapImP8DrawableSt4lessImESaISt4pairIKmS1_EEED1Ev
                0x000000000806cb6a                _ZNSt3mapImP8DrawableSt4lessImESaISt4pairIKmS1_EEED2Ev
 .text._ZNSt8_Rb_treeImSt4pairIKmP8DrawableESt10_Select1stIS4_ESt4lessImESaIS4_EE5clearEv
                0x000000000806cb9e       0x53 ./objs/graphics.o
                0x000000000806cb9e                _ZNSt8_Rb_treeImSt4pairIKmP8DrawableESt10_Select1stIS4_ESt4lessImESaIS4_EE5clearEv
 *fill*         0x000000000806cbf1        0x1 90909090
 .text._ZNSt10_List_baseI4ZObjSaIS0_EE8_M_clearEv
                0x000000000806cbf2       0x58 ./objs/graphics.o
                0x000000000806cbf2                _ZNSt10_List_baseI4ZObjSaIS0_EE8_M_clearEv
 .text._ZNSt4listI4ZObjSaIS0_EED2Ev
                0x000000000806cc4a       0x34 ./objs/graphics.o
                0x000000000806cc4a                _ZNSt4listI4ZObjSaIS0_EED1Ev
                0x000000000806cc4a                _ZNSt4listI4ZObjSaIS0_EED2Ev
 .text._ZNSt4listI4ZObjSaIS0_EE4sortIPFbRS0_S4_EEEvT_
                0x000000000806cc7e      0x1a4 ./objs/graphics.o
                0x000000000806cc7e                _ZNSt4listI4ZObjSaIS0_EE4sortIPFbRS0_S4_EEEvT_
 .text._ZNSt8_Rb_treeImSt4pairIKmP8DrawableESt10_Select1stIS4_ESt4lessImESaIS4_EE11lower_boundERS1_
                0x000000000806ce22       0x5f ./objs/graphics.o
                0x000000000806ce22                _ZNSt8_Rb_treeImSt4pairIKmP8DrawableESt10_Select1stIS4_ESt4lessImESaIS4_EE11lower_boundERS1_
 *fill*         0x000000000806ce81        0x1 90909090
 .text._ZNSt8_Rb_treeImSt4pairIKmP8DrawableESt10_Select1stIS4_ESt4lessImESaIS4_EE10_M_insert_EPKSt18_Rb_tree_node_baseSD_RKS4_
                0x000000000806ce82       0xac ./objs/graphics.o
                0x000000000806ce82                _ZNSt8_Rb_treeImSt4pairIKmP8DrawableESt10_Select1stIS4_ESt4lessImESaIS4_EE10_M_insert_EPKSt18_Rb_tree_node_baseSD_RKS4_
 .text._ZNSt8_Rb_treeImSt4pairIKmP8DrawableESt10_Select1stIS4_ESt4lessImESaIS4_EE16_M_insert_uniqueERKS4_
                0x000000000806cf2e       0xb4 ./objs/graphics.o
                0x000000000806cf2e                _ZNSt8_Rb_treeImSt4pairIKmP8DrawableESt10_Select1stIS4_ESt4lessImESaIS4_EE16_M_insert_uniqueERKS4_
 .text._ZNSt8_Rb_treeImSt4pairIKmP8DrawableESt10_Select1stIS4_ESt4lessImESaIS4_EE17_M_insert_unique_ESt23_Rb_tree_const_iteratorIS4_ERKS4_
                0x000000000806cfe2      0x102 ./objs/graphics.o
                0x000000000806cfe2                _ZNSt8_Rb_treeImSt4pairIKmP8DrawableESt10_Select1stIS4_ESt4lessImESaIS4_EE17_M_insert_unique_ESt23_Rb_tree_const_iteratorIS4_ERKS4_
 .text._ZNSt3mapImP8DrawableSt4lessImESaISt4pairIKmS1_EEE6insertESt17_Rb_tree_iteratorIS6_ERKS6_
                0x000000000806d0e4       0x43 ./objs/graphics.o
                0x000000000806d0e4                _ZNSt3mapImP8DrawableSt4lessImESaISt4pairIKmS1_EEE6insertESt17_Rb_tree_iteratorIS6_ERKS6_
 *fill*         0x000000000806d127        0x1 90909090
 .text._ZNSt3mapImP8DrawableSt4lessImESaISt4pairIKmS1_EEEixERS5_
                0x000000000806d128       0x79 ./objs/graphics.o
                0x000000000806d128                _ZNSt3mapImP8DrawableSt4lessImESaISt4pairIKmS1_EEEixERS5_
 *fill*         0x000000000806d1a1        0x3 90909090
 .text          0x000000000806d1a4      0x548 ./objs/hslrgb.o
                0x000000000806d1a4                _Z7RGB2HSL5Color
                0x000000000806d327                _Z9Hue_2_RGBddd
                0x000000000806d3d3                _Z7HSL2RGB8ColorHSL
                0x000000000806d5a1                _Z12RGBAdjustHSL5Colorddd
 .text          0x000000000806d6ec      0xf38 ./objs/input.o
                0x000000000806d819                _ZN5Input9ClearKeysEv
                0x000000000806d8f3                _ZN5Input10GetPressedEv
                0x000000000806d960                _ZN5Input11GetReleasedEv
                0x000000000806d9e9                _ZN5Input11GetRepeatedEv
                0x000000000806da72                _ZN5Input12GetTriggeredEv
                0x000000000806db66                _ZN5Input6UpdateEv
                0x000000000806de83                _ZN5Input10IsReleasedEm
                0x000000000806df7b                _ZN5Input11IsTriggeredEm
                0x000000000806e073                _ZN5Input9IsPressedEm
                0x000000000806e13f                _ZN5Input10IsRepeatedEm
                0x000000000806e282                _ZN5Input4InitEv
 .text._ZNSt6vectorIiSaIiEED2Ev
                0x000000000806e624       0x36 ./objs/input.o
                0x000000000806e624                _ZNSt6vectorIiSaIiEED2Ev
                0x000000000806e624                _ZNSt6vectorIiSaIiEED1Ev
 .text._ZNSt6vectorIbSaIbEED2Ev
                0x000000000806e65a       0x47 ./objs/input.o
                0x000000000806e65a                _ZNSt6vectorIbSaIbEED2Ev
                0x000000000806e65a                _ZNSt6vectorIbSaIbEED1Ev
 *fill*         0x000000000806e6a1        0x1 90909090
 .text._ZNSt14_Bit_referenceaSEb
                0x000000000806e6a2       0x40 ./objs/input.o
                0x000000000806e6a2                _ZNSt14_Bit_referenceaSEb
 .text._ZNSt14_Bit_referenceaSERKS_
                0x000000000806e6e2       0x47 ./objs/input.o
                0x000000000806e6e2                _ZNSt14_Bit_referenceaSERKS_
 *fill*         0x000000000806e729        0x1 90909090
 .text._ZNSt18_Bit_iterator_base10_M_bump_upEv
                0x000000000806e72a       0x45 ./objs/input.o
                0x000000000806e72a                _ZNSt18_Bit_iterator_base10_M_bump_upEv
 *fill*         0x000000000806e76f        0x1 90909090
 .text._ZNSt18_Bit_iterator_base12_M_bump_downEv
                0x000000000806e770       0x44 ./objs/input.o
                0x000000000806e770                _ZNSt18_Bit_iterator_base12_M_bump_downEv
 .text._ZNSt18_Bit_iterator_base7_M_incrEi
                0x000000000806e7b4       0x56 ./objs/input.o
                0x000000000806e7b4                _ZNSt18_Bit_iterator_base7_M_incrEi
 .text._ZNKSt18_Bit_iterator_baseneERKS_
                0x000000000806e80a       0x46 ./objs/input.o
                0x000000000806e80a                _ZNKSt18_Bit_iterator_baseneERKS_
 .text._ZNKSt13_Bit_iteratorplEi
                0x000000000806e850       0x59 ./objs/input.o
                0x000000000806e850                _ZNKSt13_Bit_iteratorplEi
 *fill*         0x000000000806e8a9        0x1 90909090
 .text._ZNKSt19_Bit_const_iteratordeEv
                0x000000000806e8aa       0x3a ./objs/input.o
                0x000000000806e8aa                _ZNKSt19_Bit_const_iteratordeEv
 .text._ZSt14__fill_bvectorSt13_Bit_iteratorS_b
                0x000000000806e8e4       0x92 ./objs/input.o
                0x000000000806e8e4                _ZSt14__fill_bvectorSt13_Bit_iteratorS_b
 .text._ZSt4fillSt13_Bit_iteratorS_RKb
                0x000000000806e976       0xc9 ./objs/input.o
                0x000000000806e976                _ZSt4fillSt13_Bit_iteratorS_RKb
 *fill*         0x000000000806ea3f        0x1 90909090
 .text._ZNKSt6vectorIbSaIbEE4sizeEv
                0x000000000806ea40       0x3b ./objs/input.o
                0x000000000806ea40                _ZNKSt6vectorIbSaIbEE4sizeEv
 *fill*         0x000000000806ea7b        0x1 90909090
 .text._ZNSt6vectorIbSaIbEE13_M_initializeEj
                0x000000000806ea7c       0x73 ./objs/input.o
                0x000000000806ea7c                _ZNSt6vectorIbSaIbEE13_M_initializeEj
 *fill*         0x000000000806eaef        0x1 90909090
 .text._ZNKSt8_Rb_treeIiSt4pairIKiSt6vectorIiSaIiEEESt10_Select1stIS5_ESt4lessIiESaIS5_EE4findERS1_
                0x000000000806eaf0       0x72 ./objs/input.o
                0x000000000806eaf0                _ZNKSt8_Rb_treeIiSt4pairIKiSt6vectorIiSaIiEEESt10_Select1stIS5_ESt4lessIiESaIS5_EE4findERS1_
 .text._ZNKSt3mapIiSt6vectorIiSaIiEESt4lessIiESaISt4pairIKiS2_EEE5countERS6_
                0x000000000806eb62       0x4b ./objs/input.o
                0x000000000806eb62                _ZNKSt3mapIiSt6vectorIiSaIiEESt4lessIiESaISt4pairIKiS2_EEE5countERS6_
 *fill*         0x000000000806ebad        0x1 90909090
 .text._ZNKSt6vectorIiSaIiEE12_M_check_lenEjPKc
                0x000000000806ebae       0x6a ./objs/input.o
                0x000000000806ebae                _ZNKSt6vectorIiSaIiEE12_M_check_lenEjPKc
 .text._ZNSt8_Rb_treeIiSt4pairIKiSt6vectorIiSaIiEEESt10_Select1stIS5_ESt4lessIiESaIS5_EE11lower_boundERS1_
                0x000000000806ec18       0x5f ./objs/input.o
                0x000000000806ec18                _ZNSt8_Rb_treeIiSt4pairIKiSt6vectorIiSaIiEEESt10_Select1stIS5_ESt4lessIiESaIS5_EE11lower_boundERS1_
 *fill*         0x000000000806ec77        0x1 90909090
 .text._ZNKSt6vectorIbSaIbEE8capacityEv
                0x000000000806ec78       0x37 ./objs/input.o
                0x000000000806ec78                _ZNKSt6vectorIbSaIbEE8capacityEv
 *fill*         0x000000000806ecaf        0x1 90909090
 .text._ZNKSt6vectorIbSaIbEE12_M_check_lenEjPKc
                0x000000000806ecb0       0x6e ./objs/input.o
                0x000000000806ecb0                _ZNKSt6vectorIbSaIbEE12_M_check_lenEjPKc
 .text._ZNKSt6vectorIS_IiSaIiEESaIS1_EE12_M_check_lenEjPKc
                0x000000000806ed1e       0x70 ./objs/input.o
                0x000000000806ed1e                _ZNKSt6vectorIS_IiSaIiEESaIS1_EE12_M_check_lenEjPKc
 .text._ZNSt12_Destroy_auxILb0EE9__destroyIPSt6vectorIiSaIiEEEEvT_S6_
                0x000000000806ed8e       0x4b ./objs/input.o
                0x000000000806ed8e                _ZNSt12_Destroy_auxILb0EE9__destroyIPSt6vectorIiSaIiEEEEvT_S6_
 *fill*         0x000000000806edd9        0x1 90909090
 .text._ZNSt6vectorIS_IiSaIiEESaIS1_EED2Ev
                0x000000000806edda       0x46 ./objs/input.o
                0x000000000806edda                _ZNSt6vectorIS_IiSaIiEESaIS1_EED2Ev
                0x000000000806edda                _ZNSt6vectorIS_IiSaIiEESaIS1_EED1Ev
 .text._ZNSt20__copy_move_backwardILb0ELb1ESt26random_access_iterator_tagE13__copy_move_bIiEEPT_PKS3_S6_S4_
                0x000000000806ee20       0x5e ./objs/input.o
                0x000000000806ee20                _ZNSt20__copy_move_backwardILb0ELb1ESt26random_access_iterator_tagE13__copy_move_bIiEEPT_PKS3_S6_S4_
 .text._ZNSt11__copy_moveILb0ELb1ESt26random_access_iterator_tagE8__copy_mImEEPT_PKS3_S6_S4_
                0x000000000806ee7e       0x57 ./objs/input.o
                0x000000000806ee7e                _ZNSt11__copy_moveILb0ELb1ESt26random_access_iterator_tagE8__copy_mImEEPT_PKS3_S6_S4_
 .text._ZNSt11__copy_moveILb0ELb0ESt26random_access_iterator_tagE8__copy_mISt19_Bit_const_iteratorSt13_Bit_iteratorEET0_T_S6_S5_
                0x000000000806eed5       0xb7 ./objs/input.o
                0x000000000806eed5                _ZNSt11__copy_moveILb0ELb0ESt26random_access_iterator_tagE8__copy_mISt19_Bit_const_iteratorSt13_Bit_iteratorEET0_T_S6_S5_
 .text._ZSt14__copy_move_a2ILb0ESt19_Bit_const_iteratorSt13_Bit_iteratorET1_T0_S3_S2_
                0x000000000806ef8c       0x5e ./objs/input.o
                0x000000000806ef8c                _ZSt14__copy_move_a2ILb0ESt19_Bit_const_iteratorSt13_Bit_iteratorET1_T0_S3_S2_
 .text._ZSt4copyISt19_Bit_const_iteratorSt13_Bit_iteratorET0_T_S3_S2_
                0x000000000806efea       0x55 ./objs/input.o
                0x000000000806efea                _ZSt4copyISt19_Bit_const_iteratorSt13_Bit_iteratorET0_T_S3_S2_
 *fill*         0x000000000806f03f        0x1 90909090
 .text._ZNSt6vectorIbSaIbEEC2ERKS1_
                0x000000000806f040       0x9c ./objs/input.o
                0x000000000806f040                _ZNSt6vectorIbSaIbEEC1ERKS1_
                0x000000000806f040                _ZNSt6vectorIbSaIbEEC2ERKS1_
 .text._ZNSt20__copy_move_backwardILb0ELb0ESt26random_access_iterator_tagE13__copy_move_bISt13_Bit_iteratorS3_EET0_T_S5_S4_
                0x000000000806f0dc       0xc0 ./objs/input.o
                0x000000000806f0dc                _ZNSt20__copy_move_backwardILb0ELb0ESt26random_access_iterator_tagE13__copy_move_bISt13_Bit_iteratorS3_EET0_T_S5_S4_
 .text._ZSt23__copy_move_backward_a2ILb0ESt13_Bit_iteratorS0_ET1_T0_S2_S1_
                0x000000000806f19c       0x5e ./objs/input.o
                0x000000000806f19c                _ZSt23__copy_move_backward_a2ILb0ESt13_Bit_iteratorS0_ET1_T0_S2_S1_
 .text._ZSt13copy_backwardISt13_Bit_iteratorS0_ET0_T_S2_S1_
                0x000000000806f1fa       0x55 ./objs/input.o
                0x000000000806f1fa                _ZSt13copy_backwardISt13_Bit_iteratorS0_ET0_T_S2_S1_
 .text._ZNSt11__copy_moveILb0ELb0ESt26random_access_iterator_tagE8__copy_mISt13_Bit_iteratorS3_EET0_T_S5_S4_
                0x000000000806f24f       0xc7 ./objs/input.o
                0x000000000806f24f                _ZNSt11__copy_moveILb0ELb0ESt26random_access_iterator_tagE8__copy_mISt13_Bit_iteratorS3_EET0_T_S5_S4_
 .text._ZSt14__copy_move_a2ILb0ESt13_Bit_iteratorS0_ET1_T0_S2_S1_
                0x000000000806f316       0x5e ./objs/input.o
                0x000000000806f316                _ZSt14__copy_move_a2ILb0ESt13_Bit_iteratorS0_ET1_T0_S2_S1_
 .text._ZSt4copyISt13_Bit_iteratorS0_ET0_T_S2_S1_
                0x000000000806f374       0x55 ./objs/input.o
                0x000000000806f374                _ZSt4copyISt13_Bit_iteratorS0_ET0_T_S2_S1_
 *fill*         0x000000000806f3c9        0x1 90909090
 .text._ZNSt6vectorIbSaIbEE14_M_fill_insertESt13_Bit_iteratorjb
                0x000000000806f3ca      0x192 ./objs/input.o
                0x000000000806f3ca                _ZNSt6vectorIbSaIbEE14_M_fill_insertESt13_Bit_iteratorjb
 .text._ZNSt6vectorIbSaIbEE6resizeEjb
                0x000000000806f55c       0x91 ./objs/input.o
                0x000000000806f55c                _ZNSt6vectorIbSaIbEE6resizeEjb
 .text._ZNSt11__copy_moveILb0ELb1ESt26random_access_iterator_tagE8__copy_mIiEEPT_PKS3_S6_S4_
                0x000000000806f5ed       0x57 ./objs/input.o
                0x000000000806f5ed                _ZNSt11__copy_moveILb0ELb1ESt26random_access_iterator_tagE8__copy_mIiEEPT_PKS3_S6_S4_
 .text._ZNSt6vectorIiSaIiEEC2ERKS1_
                0x000000000806f644       0x79 ./objs/input.o
                0x000000000806f644                _ZNSt6vectorIiSaIiEEC2ERKS1_
                0x000000000806f644                _ZNSt6vectorIiSaIiEEC1ERKS1_
 *fill*         0x000000000806f6bd        0x1 90909090
 .text._ZNSt8_Rb_treeIiSt4pairIKiSt6vectorIiSaIiEEESt10_Select1stIS5_ESt4lessIiESaIS5_EE10_M_insert_EPKSt18_Rb_tree_node_baseSE_RKS5_
                0x000000000806f6be       0xd3 ./objs/input.o
                0x000000000806f6be                _ZNSt8_Rb_treeIiSt4pairIKiSt6vectorIiSaIiEEESt10_Select1stIS5_ESt4lessIiESaIS5_EE10_M_insert_EPKSt18_Rb_tree_node_baseSE_RKS5_
 *fill*         0x000000000806f791        0x1 90909090
 .text._ZNSt8_Rb_treeIiSt4pairIKiSt6vectorIiSaIiEEESt10_Select1stIS5_ESt4lessIiESaIS5_EE16_M_insert_uniqueERKS5_
                0x000000000806f792       0xb4 ./objs/input.o
                0x000000000806f792                _ZNSt8_Rb_treeIiSt4pairIKiSt6vectorIiSaIiEEESt10_Select1stIS5_ESt4lessIiESaIS5_EE16_M_insert_uniqueERKS5_
 .text._ZNSt8_Rb_treeIiSt4pairIKiSt6vectorIiSaIiEEESt10_Select1stIS5_ESt4lessIiESaIS5_EE17_M_insert_unique_ESt23_Rb_tree_const_iteratorIS5_ERKS5_
                0x000000000806f846      0x102 ./objs/input.o
                0x000000000806f846                _ZNSt8_Rb_treeIiSt4pairIKiSt6vectorIiSaIiEEESt10_Select1stIS5_ESt4lessIiESaIS5_EE17_M_insert_unique_ESt23_Rb_tree_const_iteratorIS5_ERKS5_
 .text._ZNSt3mapIiSt6vectorIiSaIiEESt4lessIiESaISt4pairIKiS2_EEE6insertESt17_Rb_tree_iteratorIS7_ERKS7_
                0x000000000806f948       0x43 ./objs/input.o
                0x000000000806f948                _ZNSt3mapIiSt6vectorIiSaIiEESt4lessIiESaISt4pairIKiS2_EEE6insertESt17_Rb_tree_iteratorIS7_ERKS7_
 *fill*         0x000000000806f98b        0x1 90909090
 .text._ZNSt3mapIiSt6vectorIiSaIiEESt4lessIiESaISt4pairIKiS2_EEEixERS6_
                0x000000000806f98c       0xd7 ./objs/input.o
                0x000000000806f98c                _ZNSt3mapIiSt6vectorIiSaIiEESt4lessIiESaISt4pairIKiS2_EEEixERS6_
 .text._ZSt10_ConstructISt6vectorIiSaIiEES2_EvPT_RKT0_
                0x000000000806fa63       0x4c ./objs/input.o
                0x000000000806fa63                _ZSt10_ConstructISt6vectorIiSaIiEES2_EvPT_RKT0_
 .text._ZNSt22__uninitialized_fill_nILb0EE20uninitialized_fill_nIPSt6vectorIiSaIiEEjS4_EEvT_T0_RKT1_
                0x000000000806faaf       0x84 ./objs/input.o
                0x000000000806faaf                _ZNSt22__uninitialized_fill_nILb0EE20uninitialized_fill_nIPSt6vectorIiSaIiEEjS4_EEvT_T0_RKT1_
 .text._ZNSt20__uninitialized_copyILb0EE18uninitialized_copyIPSt6vectorIiSaIiEES5_EET0_T_S7_S6_
                0x000000000806fb33       0x88 ./objs/input.o
                0x000000000806fb33                _ZNSt20__uninitialized_copyILb0EE18uninitialized_copyIPSt6vectorIiSaIiEES5_EET0_T_S7_S6_
 *fill*         0x000000000806fbbb        0x1 90909090
 .text._ZNSt6vectorIiSaIiEE14_M_fill_insertEN9__gnu_cxx17__normal_iteratorIPiS1_EEjRKi
                0x000000000806fbbc      0x18b ./objs/input.o
                0x000000000806fbbc                _ZNSt6vectorIiSaIiEE14_M_fill_insertEN9__gnu_cxx17__normal_iteratorIPiS1_EEjRKi
 *fill*         0x000000000806fd47        0x1 90909090
 .text._ZNSt6vectorIiSaIiEE6resizeEji
                0x000000000806fd48       0x66 ./objs/input.o
                0x000000000806fd48                _ZNSt6vectorIiSaIiEE6resizeEji
 .text._ZNSt6vectorIiSaIiEE13_M_insert_auxEN9__gnu_cxx17__normal_iteratorIPiS1_EERKi
                0x000000000806fdae       0xd5 ./objs/input.o
                0x000000000806fdae                _ZNSt6vectorIiSaIiEE13_M_insert_auxEN9__gnu_cxx17__normal_iteratorIPiS1_EERKi
 *fill*         0x000000000806fe83        0x1 90909090
 .text._ZNSt6vectorIiSaIiEE9push_backERKi
                0x000000000806fe84       0x55 ./objs/input.o
                0x000000000806fe84                _ZNSt6vectorIiSaIiEE9push_backERKi
 *fill*         0x000000000806fed9        0x1 90909090
 .text._ZNSt6vectorIiSaIiEEaSERKS1_
                0x000000000806feda       0xd4 ./objs/input.o
                0x000000000806feda                _ZNSt6vectorIiSaIiEEaSERKS1_
 .text._ZNSt20__copy_move_backwardILb0ELb0ESt26random_access_iterator_tagE13__copy_move_bIPSt6vectorIiSaIiEES6_EET0_T_S8_S7_
                0x000000000806ffae       0x61 ./objs/input.o
                0x000000000806ffae                _ZNSt20__copy_move_backwardILb0ELb0ESt26random_access_iterator_tagE13__copy_move_bIPSt6vectorIiSaIiEES6_EET0_T_S8_S7_
 .text._ZSt8__fill_aIPSt6vectorIiSaIiEES2_EN9__gnu_cxx11__enable_ifIXntsrSt11__is_scalarIT0_E7__valueEvE6__typeET_SB_RKS7_
                0x000000000807000f       0x50 ./objs/input.o
                0x000000000807000f                _ZSt8__fill_aIPSt6vectorIiSaIiEES2_EN9__gnu_cxx11__enable_ifIXntsrSt11__is_scalarIT0_E7__valueEvE6__typeET_SB_RKS7_
 *fill*         0x000000000807005f        0x1 90909090
 .text._ZNSt6vectorIS_IiSaIiEESaIS1_EE14_M_fill_insertEN9__gnu_cxx17__normal_iteratorIPS1_S3_EEjRKS1_
                0x0000000008070060      0x235 ./objs/input.o
                0x0000000008070060                _ZNSt6vectorIS_IiSaIiEESaIS1_EE14_M_fill_insertEN9__gnu_cxx17__normal_iteratorIPS1_S3_EEjRKS1_
 *fill*         0x0000000008070295        0x1 90909090
 .text._ZNSt6vectorIS_IiSaIiEESaIS1_EE6resizeEjS1_
                0x0000000008070296       0x72 ./objs/input.o
                0x0000000008070296                _ZNSt6vectorIS_IiSaIiEESaIS1_EE6resizeEjS1_
 .text          0x0000000008070308      0x719 ./objs/inputbuttons_qt.o
                0x000000000807035f                _ZN5Input11InitButtonsEv
 *fill*         0x0000000008070a21        0x1 90909090
 .text._ZNSt8_Rb_treeIiSt4pairIKiSt6vectorIiSaIiEEESt10_Select1stIS5_ESt4lessIiESaIS5_EE13_Rb_tree_implIS9_Lb0EEC2Ev
                0x0000000008070a22       0x4b ./objs/inputbuttons_qt.o
                0x0000000008070a22                _ZNSt8_Rb_treeIiSt4pairIKiSt6vectorIiSaIiEEESt10_Select1stIS5_ESt4lessIiESaIS5_EE13_Rb_tree_implIS9_Lb0EEC1Ev
                0x0000000008070a22                _ZNSt8_Rb_treeIiSt4pairIKiSt6vectorIiSaIiEEESt10_Select1stIS5_ESt4lessIiESaIS5_EE13_Rb_tree_implIS9_Lb0EEC2Ev
 *fill*         0x0000000008070a6d        0x1 90909090
 .text._ZNSt8_Rb_treeIiSt4pairIKiSt6vectorIiSaIiEEESt10_Select1stIS5_ESt4lessIiESaIS5_EE8_M_eraseEPSt13_Rb_tree_nodeIS5_E
                0x0000000008070a6e       0x64 ./objs/inputbuttons_qt.o
                0x0000000008070a6e                _ZNSt8_Rb_treeIiSt4pairIKiSt6vectorIiSaIiEEESt10_Select1stIS5_ESt4lessIiESaIS5_EE8_M_eraseEPSt13_Rb_tree_nodeIS5_E
 .text._ZNSt8_Rb_treeIiSt4pairIKiSt6vectorIiSaIiEEESt10_Select1stIS5_ESt4lessIiESaIS5_EED2Ev
                0x0000000008070ad2       0x39 ./objs/inputbuttons_qt.o
                0x0000000008070ad2                _ZNSt8_Rb_treeIiSt4pairIKiSt6vectorIiSaIiEEESt10_Select1stIS5_ESt4lessIiESaIS5_EED1Ev
                0x0000000008070ad2                _ZNSt8_Rb_treeIiSt4pairIKiSt6vectorIiSaIiEEESt10_Select1stIS5_ESt4lessIiESaIS5_EED2Ev
 *fill*         0x0000000008070b0b        0x1 90909090
 .text._ZNSt3mapIiSt6vectorIiSaIiEESt4lessIiESaISt4pairIKiS2_EEED2Ev
                0x0000000008070b0c       0x34 ./objs/inputbuttons_qt.o
                0x0000000008070b0c                _ZNSt3mapIiSt6vectorIiSaIiEESt4lessIiESaISt4pairIKiS2_EEED2Ev
                0x0000000008070b0c                _ZNSt3mapIiSt6vectorIiSaIiEESt4lessIiESaISt4pairIKiS2_EEED1Ev
 .text          0x0000000008070b40      0x707 ./objs/inputkeys.o
                0x0000000008070b40                _ZN5Input7NUM2KEYEm
                0x00000000080711f3                _ZN5Input7KEY2NUMEi
 *fill*         0x0000000008071247        0x1 90909090
 .text          0x0000000008071248      0x14b ./objs/main.o
                0x0000000008071248                main
 *fill*         0x0000000008071393        0x1 90909090
 .text._ZN10MainThread3runEv
                0x0000000008071394       0x2d ./objs/main.o
                0x0000000008071394                _ZN10MainThread3runEv
 *fill*         0x00000000080713c1        0x1 90909090
 .text._ZN10MainThreadD2Ev
                0x00000000080713c2       0x3a ./objs/main.o
                0x00000000080713c2                _ZN10MainThreadD2Ev
                0x00000000080713c2                _ZN10MainThreadD1Ev
 .text._ZN10MainThreadD0Ev
                0x00000000080713fc       0x46 ./objs/main.o
                0x00000000080713fc                _ZN10MainThreadD0Ev
 *fill*         0x0000000008071442        0x2 90909090
 .text          0x0000000008071444      0x213 ./objs/msgbox_qt.o
                0x0000000008071444                _ZN6MsgBox2OKERKSsS1_
                0x00000000080714f5                _ZN6MsgBox5ErrorERKSsS1_
                0x00000000080715a6                _ZN6MsgBox7WarningERKSsS1_
 *fill*         0x0000000008071657        0x1 90909090
 .text          0x0000000008071658      0x67c ./objs/output.o
                0x0000000008071658                _ZN6Output4InitEv
                0x000000000807169f                _ZN6Output8PostFileERKSs
                0x0000000008071769                _ZN6Output7PostStrERKSs
                0x0000000008071807                _ZN6Output10WarningStrERKSs
                0x000000000807183b                _ZN6Output4PostEPKcz
                0x00000000080718c7                _ZN6Output8ErrorStrERKSs
                0x000000000807191c                _ZN6Output5ErrorEPKcz
                0x00000000080719a8                _ZN6Output7WarningEPKcz
                0x0000000008071a34                _ZN6Output7ConsoleEv
                0x0000000008071a75                _ZN6Output6MsgBoxEv
                0x0000000008071ab6                _ZN6Output4FileERKSs
                0x0000000008071b0e                _ZN6Output4NoneEv
                0x0000000008071b4f                _ZN6Output4GetsEv
                0x0000000008071be3                _ZN6Output4GetcEv
 .text          0x0000000008071cd4      0xcc5 ./objs/plane.o
                0x0000000008071cd4                _ZN5Plane14RefreshBitmapsEv
                0x0000000008071cfe                _ZN5Plane4DrawEl
                0x000000000807208e                _ZN5PlaneD1Ev
                0x000000000807208e                _ZN5PlaneD2Ev
                0x00000000080720e8                _ZN5PlaneD0Ev
                0x0000000008072128                _ZN5PlaneC1Em
                0x0000000008072128                _ZN5PlaneC2Em
                0x000000000807223c                _ZN5Plane4DrawElP6Bitmap
                0x0000000008072266                _ZN5Plane11GetViewportEv
                0x0000000008072296                _ZN5Plane11SetViewportEm
                0x000000000807232e                _ZN5Plane9GetBitmapEv
                0x000000000807235e                _ZN5Plane9SetBitmapEm
                0x000000000807239a                _ZN5Plane10GetVisibleEv
                0x00000000080723ca                _ZN5Plane10SetVisibleEb
                0x00000000080723fc                _ZN5Plane4GetZEv
                0x000000000807242c                _ZN5Plane4SetZEi
                0x000000000807249c                _ZN5Plane5GetOxEv
                0x00000000080724cc                _ZN5Plane5SetOxEi
                0x00000000080724fe                _ZN5Plane5GetOyEv
                0x000000000807252e                _ZN5Plane5SetOyEi
                0x0000000008072560                _ZN5Plane8GetZoomXEv
                0x0000000008072592                _ZN5Plane8SetZoomXEf
                0x00000000080725d2                _ZN5Plane8GetZoomYEv
                0x0000000008072604                _ZN5Plane8SetZoomYEf
                0x0000000008072644                _ZN5Plane10GetOpacityEv
                0x0000000008072674                _ZN5Plane10SetOpacityEi
                0x00000000080726b0                _ZN5Plane12GetBlendTypeEv
                0x00000000080726e0                _ZN5Plane12SetBlendTypeEi
                0x0000000008072712                _ZN5Plane8GetColorEv
                0x0000000008072742                _ZN5Plane8SetColorEm
                0x0000000008072774                _ZN5Plane7GetToneEv
                0x00000000080727a4                _ZN5Plane7SetToneEm
                0x00000000080727e0                _ZN5Plane10IsDisposedEm
                0x0000000008072826                _ZN5Plane3GetEm
                0x0000000008072866                _ZN5Plane7DisposeEm
                0x0000000008072920                _ZN5Plane3NewEm
 *fill*         0x0000000008072999        0x1 90909090
 .text._ZN8DrawableD2Ev
                0x000000000807299a       0x32 ./objs/plane.o
                0x000000000807299a                _ZN8DrawableD2Ev
                0x000000000807299a                _ZN8DrawableD1Ev
 .text._ZN8DrawableD0Ev
                0x00000000080729cc       0x3a ./objs/plane.o
                0x00000000080729cc                _ZN8DrawableD0Ev
 .text._ZNKSt8_Rb_treeImSt4pairIKmP8DrawableESt10_Select1stIS4_ESt4lessImESaIS4_EE4findERS1_
                0x0000000008072a06       0x72 ./objs/plane.o
                0x0000000008072a06                _ZNKSt8_Rb_treeImSt4pairIKmP8DrawableESt10_Select1stIS4_ESt4lessImESaIS4_EE4findERS1_
 .text._ZNKSt3mapImP8DrawableSt4lessImESaISt4pairIKmS1_EEE5countERS5_
                0x0000000008072a78       0x4b ./objs/plane.o
                0x0000000008072a78                _ZNKSt3mapImP8DrawableSt4lessImESaISt4pairIKmS1_EEE5countERS5_
 *fill*         0x0000000008072ac3        0x1 90909090
 .text._ZNSt8_Rb_treeImSt4pairIKmP8DrawableESt10_Select1stIS4_ESt4lessImESaIS4_EE4findERS1_
                0x0000000008072ac4       0x72 ./objs/plane.o
                0x0000000008072ac4                _ZNSt8_Rb_treeImSt4pairIKmP8DrawableESt10_Select1stIS4_ESt4lessImESaIS4_EE4findERS1_
 .text._ZNSt8_Rb_treeImSt4pairIKmP8DrawableESt10_Select1stIS4_ESt4lessImESaIS4_EE5eraseESt17_Rb_tree_iteratorIS4_E
                0x0000000008072b36       0x4a ./objs/plane.o
                0x0000000008072b36                _ZNSt8_Rb_treeImSt4pairIKmP8DrawableESt10_Select1stIS4_ESt4lessImESaIS4_EE5eraseESt17_Rb_tree_iteratorIS4_E
 .text          0x0000000008072b80      0x35f ./objs/player.o
                0x0000000008072b80                _ZN6Player4InitEv
                0x0000000008072c02                _ZN6Player4ExitEv
                0x0000000008072c46                _ZN6Player16ToggleFullscreenEv
                0x0000000008072cfd                _ZN6Player6UpdateEv
                0x0000000008072dfb                _ZN6Player12ResizeWindowEll
                0x0000000008072e38                _ZN6Player8GetWidthEv
                0x0000000008072e70                _ZN6Player9GetHeightEv
                0x0000000008072ea8                _ZN6Player11SwapBuffersEv
 *fill*         0x0000000008072edf        0x1 90909090
 .text._ZN7QWidget6resizeEii
                0x0000000008072ee0       0x44 ./objs/player.o
                0x0000000008072ee0                _ZN7QWidget6resizeEii
 .text          0x0000000008072f24      0x3f3 ./objs/rect.o
                0x0000000008072fc0                _ZN4RectC1Ev
                0x0000000008072fc0                _ZN4RectC2Ev
                0x0000000008073008                _ZN4RectC1Em
                0x0000000008073008                _ZN4RectC2Em
                0x000000000807309e                _ZN4RectC1Eiiii
                0x000000000807309e                _ZN4RectC2Eiiii
                0x00000000080730e2                _ZN4RectD1Ev
                0x00000000080730e2                _ZN4RectD2Ev
                0x000000000807310c                _ZNK4RectneERKS_
                0x0000000008073162                _ZN4Rect3SetEiiii
                0x00000000080731a6                _ZN4Rect8GetARGSSEv
                0x0000000008073226                _ZN4Rect6AdjustEii
                0x00000000080732ac                _ZN4Rect13IsOutOfBoundsEii
 *fill*         0x0000000008073317        0x1 90909090
 .text          0x0000000008073318      0x361 ./objs/socket.o
                0x0000000008073318                _ZN6SocketC2Ev
                0x0000000008073318                _ZN6SocketC1Ev
                0x0000000008073358                _ZN6Socket7ConnectERKSst
                0x00000000080733d2                _ZN6Socket6ListenEti
                0x0000000008073462                _ZN6Socket7ReceiveEv
                0x0000000008073548                _ZN6Socket4SendE6Buffer
                0x00000000080735de                _ZN6Socket8ShutdownEv
                0x000000000807361e                _ZN6SocketD2Ev
                0x000000000807361e                _ZN6SocketD1Ev
 *fill*         0x0000000008073679        0x3 90909090
 .text          0x000000000807367c     0x1b69 ./objs/sprite.o
                0x00000000080736c6                _ZN6SpriteD2Ev
                0x00000000080736c6                _ZN6SpriteD1Ev
                0x00000000080737be                _ZN6SpriteD0Ev
                0x00000000080737fe                _ZN6Sprite14RefreshBitmapsEv
                0x0000000008073846                _ZN6SpriteC2Em
                0x0000000008073846                _ZN6SpriteC1Em
                0x00000000080739f0                _ZN6Sprite4DrawElP6Bitmap
                0x0000000008073a1a                _ZN6Sprite8GetWidthEv
                0x0000000008073a5e                _ZN6Sprite9GetHeightEv
                0x0000000008073aa2                _ZN6Sprite6UpdateEv
                0x0000000008073b08                _ZN6Sprite5FlashEi
                0x0000000008073b84                _ZN6Sprite5FlashE5Colori
                0x0000000008073bda                _ZN6Sprite12RefreshFlashEv
                0x0000000008073d4a                _ZN6Sprite7RefreshEv
                0x0000000008073e76                _ZN6Sprite4DrawEl
                0x000000000807481a                _ZN6Sprite11GetViewportEv
                0x000000000807484a                _ZN6Sprite11SetViewportEm
                0x00000000080748e2                _ZN6Sprite9GetBitmapEv
                0x0000000008074912                _ZN6Sprite9SetBitmapEm
                0x0000000008074958                _ZN6Sprite10GetSrcRectEv
                0x0000000008074988                _ZN6Sprite10SetSrcRectEm
                0x00000000080749ba                _ZN6Sprite10GetVisibleEv
                0x00000000080749ea                _ZN6Sprite10SetVisibleEb
                0x0000000008074a1c                _ZN6Sprite4GetXEv
                0x0000000008074a4c                _ZN6Sprite4SetXEi
                0x0000000008074a7e                _ZN6Sprite4GetYEv
                0x0000000008074aae                _ZN6Sprite4SetYEi
                0x0000000008074ae0                _ZN6Sprite4GetZEv
                0x0000000008074b10                _ZN6Sprite4SetZEi
                0x0000000008074b80                _ZN6Sprite5GetOxEv
                0x0000000008074bb0                _ZN6Sprite5SetOxEi
                0x0000000008074be2                _ZN6Sprite5GetOyEv
                0x0000000008074c12                _ZN6Sprite5SetOyEi
                0x0000000008074c44                _ZN6Sprite8GetZoomXEv
                0x0000000008074c76                _ZN6Sprite8SetZoomXEf
                0x0000000008074ca8                _ZN6Sprite8GetZoomYEv
                0x0000000008074cda                _ZN6Sprite8SetZoomYEf
                0x0000000008074d0c                _ZN6Sprite8GetAngleEv
                0x0000000008074d3e                _ZN6Sprite8SetAngleEf
                0x0000000008074d70                _ZN6Sprite8GetFlipXEv
                0x0000000008074da0                _ZN6Sprite8SetFlipXEb
                0x0000000008074dd2                _ZN6Sprite8GetFlipYEv
                0x0000000008074e02                _ZN6Sprite8SetFlipYEb
                0x0000000008074e34                _ZN6Sprite12GetBushDepthEv
                0x0000000008074e64                _ZN6Sprite12SetBushDepthEi
                0x0000000008074e96                _ZN6Sprite10GetOpacityEv
                0x0000000008074ec6                _ZN6Sprite10SetOpacityEi
                0x0000000008074ef8                _ZN6Sprite12GetBlendTypeEv
                0x0000000008074f28                _ZN6Sprite12SetBlendTypeEi
                0x0000000008074f5a                _ZN6Sprite8GetColorEv
                0x0000000008074f8a                _ZN6Sprite8SetColorEm
                0x0000000008074fbc                _ZN6Sprite7GetToneEv
                0x0000000008074fec                _ZN6Sprite7SetToneEm
                0x000000000807502c                _ZN6Sprite10IsDisposedEm
                0x0000000008075072                _ZN6Sprite3GetEm
                0x00000000080750b2                _ZN6Sprite7DisposeEm
                0x000000000807516c                _ZN6Sprite3NewEm
 *fill*         0x00000000080751e5        0x3 90909090
 .text          0x00000000080751e8      0x584 ./objs/system.o
                0x000000000807548f                _ZN6System4InitEv
 .text._ZNSt18_Rb_tree_node_base10_S_minimumEPS_
                0x000000000807576c       0x38 ./objs/system.o
                0x000000000807576c                _ZNSt18_Rb_tree_node_base10_S_minimumEPS_
 .text._ZNSt18_Rb_tree_node_base10_S_maximumEPS_
                0x00000000080757a4       0x38 ./objs/system.o
                0x00000000080757a4                _ZNSt18_Rb_tree_node_base10_S_maximumEPS_
 .text._ZNSt10_List_baseIN15CSimpleIniTemplIc16SI_GenericNoCaseIcE11SI_ConvertAIcEE5EntryESaIS6_EE8_M_clearEv
                0x00000000080757dc       0x4b ./objs/system.o
                0x00000000080757dc                _ZNSt10_List_baseIN15CSimpleIniTemplIc16SI_GenericNoCaseIcE11SI_ConvertAIcEE5EntryESaIS6_EE8_M_clearEv
 *fill*         0x0000000008075827        0x1 90909090
 .text._ZNKSt8_Rb_treeIN15CSimpleIniTemplIc16SI_GenericNoCaseIcE11SI_ConvertAIcEE5EntryESt4pairIKS6_St8multimapIS6_PKcNS6_8KeyOrderESaIS7_IS8_SB_EEEESt10_Select1stISG_ESC_SaISG_EE4findERS8_
                0x0000000008075828       0x99 ./objs/system.o
                0x0000000008075828                _ZNKSt8_Rb_treeIN15CSimpleIniTemplIc16SI_GenericNoCaseIcE11SI_ConvertAIcEE5EntryESt4pairIKS6_St8multimapIS6_PKcNS6_8KeyOrderESaIS7_IS8_SB_EEEESt10_Select1stISG_ESC_SaISG_EE4findERS8_
 *fill*         0x00000000080758c1        0x1 90909090
 .text._ZNKSt8_Rb_treeIN15CSimpleIniTemplIc16SI_GenericNoCaseIcE11SI_ConvertAIcEE5EntryESt4pairIKS6_PKcESt10_Select1stISB_ENS6_8KeyOrderESaISB_EE4findERS8_
                0x00000000080758c2       0x99 ./objs/system.o
                0x00000000080758c2                _ZNKSt8_Rb_treeIN15CSimpleIniTemplIc16SI_GenericNoCaseIcE11SI_ConvertAIcEE5EntryESt4pairIKS6_PKcESt10_Select1stISB_ENS6_8KeyOrderESaISB_EE4findERS8_
 *fill*         0x000000000807595b        0x1 90909090
 .text._ZNK15CSimpleIniTemplIc16SI_GenericNoCaseIcE11SI_ConvertAIcEE8GetValueEPKcS6_S6_Pb
                0x000000000807595c      0x107 ./objs/system.o
                0x000000000807595c                _ZNK15CSimpleIniTemplIc16SI_GenericNoCaseIcE11SI_ConvertAIcEE8GetValueEPKcS6_S6_Pb
 *fill*         0x0000000008075a63        0x1 90909090
 .text._ZNK15CSimpleIniTemplIc16SI_GenericNoCaseIcE11SI_ConvertAIcEE12GetLongValueEPKcS6_lPb
                0x0000000008075a64       0xc4 ./objs/system.o
                0x0000000008075a64                _ZNK15CSimpleIniTemplIc16SI_GenericNoCaseIcE11SI_ConvertAIcEE12GetLongValueEPKcS6_lPb
 .text._ZNSt8_Rb_treeIN15CSimpleIniTemplIc16SI_GenericNoCaseIcE11SI_ConvertAIcEE5EntryESt4pairIKS6_St8multimapIS6_PKcNS6_8KeyOrderESaIS7_IS8_SB_EEEESt10_Select1stISG_ESC_SaISG_EE13_Rb_tree_implISC_Lb0EEC2Ev
                0x0000000008075b28       0x4b ./objs/system.o
                0x0000000008075b28                _ZNSt8_Rb_treeIN15CSimpleIniTemplIc16SI_GenericNoCaseIcE11SI_ConvertAIcEE5EntryESt4pairIKS6_St8multimapIS6_PKcNS6_8KeyOrderESaIS7_IS8_SB_EEEESt10_Select1stISG_ESC_SaISG_EE13_Rb_tree_implISC_Lb0EEC2Ev
                0x0000000008075b28                _ZNSt8_Rb_treeIN15CSimpleIniTemplIc16SI_GenericNoCaseIcE11SI_ConvertAIcEE5EntryESt4pairIKS6_St8multimapIS6_PKcNS6_8KeyOrderESaIS7_IS8_SB_EEEESt10_Select1stISG_ESC_SaISG_EE13_Rb_tree_implISC_Lb0EEC1Ev
 *fill*         0x0000000008075b73        0x1 90909090
 .text._ZNK15CSimpleIniTemplIc16SI_GenericNoCaseIcE11SI_ConvertAIcEE17LoadMultiLineTextERPcRPKcS8_b
                0x0000000008075b74      0x1d2 ./objs/system.o
                0x0000000008075b74                _ZNK15CSimpleIniTemplIc16SI_GenericNoCaseIcE11SI_ConvertAIcEE17LoadMultiLineTextERPcRPKcS8_b
 .text._ZNK15CSimpleIniTemplIc16SI_GenericNoCaseIcE11SI_ConvertAIcEE9FindEntryERPcRPKcS9_S9_S9_
                0x0000000008075d46      0x2cd ./objs/system.o
                0x0000000008075d46                _ZNK15CSimpleIniTemplIc16SI_GenericNoCaseIcE11SI_ConvertAIcEE9FindEntryERPcRPKcS9_S9_S9_
 *fill*         0x0000000008076013        0x1 90909090
 .text._ZNSt4listIN15CSimpleIniTemplIc16SI_GenericNoCaseIcE11SI_ConvertAIcEE5EntryESaIS6_EE9push_backERKS6_
                0x0000000008076014       0x60 ./objs/system.o
                0x0000000008076014                _ZNSt4listIN15CSimpleIniTemplIc16SI_GenericNoCaseIcE11SI_ConvertAIcEE5EntryESaIS6_EE9push_backERKS6_
 .text._ZN15CSimpleIniTemplIc16SI_GenericNoCaseIcE11SI_ConvertAIcEE10CopyStringERPKc
                0x0000000008076074       0x97 ./objs/system.o
                0x0000000008076074                _ZN15CSimpleIniTemplIc16SI_GenericNoCaseIcE11SI_ConvertAIcEE10CopyStringERPKc
 *fill*         0x000000000807610b        0x1 90909090
 .text._ZN15CSimpleIniTemplIc16SI_GenericNoCaseIcE11SI_ConvertAIcEE15FindFileCommentERPcb
                0x000000000807610c       0x7a ./objs/system.o
                0x000000000807610c                _ZN15CSimpleIniTemplIc16SI_GenericNoCaseIcE11SI_ConvertAIcEE15FindFileCommentERPcb
 .text._ZNSt8_Rb_treeIN15CSimpleIniTemplIc16SI_GenericNoCaseIcE11SI_ConvertAIcEE5EntryESt4pairIKS6_St8multimapIS6_PKcNS6_8KeyOrderESaIS7_IS8_SB_EEEESt10_Select1stISG_ESC_SaISG_EE4findERS8_
                0x0000000008076186       0x99 ./objs/system.o
                0x0000000008076186                _ZNSt8_Rb_treeIN15CSimpleIniTemplIc16SI_GenericNoCaseIcE11SI_ConvertAIcEE5EntryESt4pairIKS6_St8multimapIS6_PKcNS6_8KeyOrderESaIS7_IS8_SB_EEEESt10_Select1stISG_ESC_SaISG_EE4findERS8_
 *fill*         0x000000000807621f        0x1 90909090
 .text._ZNSt8_Rb_treeIN15CSimpleIniTemplIc16SI_GenericNoCaseIcE11SI_ConvertAIcEE5EntryESt4pairIKS6_PKcESt10_Select1stISB_ENS6_8KeyOrderESaISB_EE8_M_eraseEPSt13_Rb_tree_nodeISB_E
                0x0000000008076220       0x59 ./objs/system.o
                0x0000000008076220                _ZNSt8_Rb_treeIN15CSimpleIniTemplIc16SI_GenericNoCaseIcE11SI_ConvertAIcEE5EntryESt4pairIKS6_PKcESt10_Select1stISB_ENS6_8KeyOrderESaISB_EE8_M_eraseEPSt13_Rb_tree_nodeISB_E
 *fill*         0x0000000008076279        0x1 90909090
 .text._ZNSt8_Rb_treeIN15CSimpleIniTemplIc16SI_GenericNoCaseIcE11SI_ConvertAIcEE5EntryESt4pairIKS6_PKcESt10_Select1stISB_ENS6_8KeyOrderESaISB_EED2Ev
                0x000000000807627a       0x39 ./objs/system.o
                0x000000000807627a                _ZNSt8_Rb_treeIN15CSimpleIniTemplIc16SI_GenericNoCaseIcE11SI_ConvertAIcEE5EntryESt4pairIKS6_PKcESt10_Select1stISB_ENS6_8KeyOrderESaISB_EED2Ev
                0x000000000807627a                _ZNSt8_Rb_treeIN15CSimpleIniTemplIc16SI_GenericNoCaseIcE11SI_ConvertAIcEE5EntryESt4pairIKS6_PKcESt10_Select1stISB_ENS6_8KeyOrderESaISB_EED1Ev
 *fill*         0x00000000080762b3        0x1 90909090
 .text._ZNSt8_Rb_treeIN15CSimpleIniTemplIc16SI_GenericNoCaseIcE11SI_ConvertAIcEE5EntryESt4pairIKS6_St8multimapIS6_PKcNS6_8KeyOrderESaIS7_IS8_SB_EEEESt10_Select1stISG_ESC_SaISG_EE8_M_eraseEPSt13_Rb_tree_nodeISG_E
                0x00000000080762b4       0x64 ./objs/system.o
                0x00000000080762b4                _ZNSt8_Rb_treeIN15CSimpleIniTemplIc16SI_GenericNoCaseIcE11SI_ConvertAIcEE5EntryESt4pairIKS6_St8multimapIS6_PKcNS6_8KeyOrderESaIS7_IS8_SB_EEEESt10_Select1stISG_ESC_SaISG_EE8_M_eraseEPSt13_Rb_tree_nodeISG_E
 .text._ZNSt8_Rb_treeIN15CSimpleIniTemplIc16SI_GenericNoCaseIcE11SI_ConvertAIcEE5EntryESt4pairIKS6_St8multimapIS6_PKcNS6_8KeyOrderESaIS7_IS8_SB_EEEESt10_Select1stISG_ESC_SaISG_EED2Ev
                0x0000000008076318       0x39 ./objs/system.o
                0x0000000008076318                _ZNSt8_Rb_treeIN15CSimpleIniTemplIc16SI_GenericNoCaseIcE11SI_ConvertAIcEE5EntryESt4pairIKS6_St8multimapIS6_PKcNS6_8KeyOrderESaIS7_IS8_SB_EEEESt10_Select1stISG_ESC_SaISG_EED2Ev
                0x0000000008076318                _ZNSt8_Rb_treeIN15CSimpleIniTemplIc16SI_GenericNoCaseIcE11SI_ConvertAIcEE5EntryESt4pairIKS6_St8multimapIS6_PKcNS6_8KeyOrderESaIS7_IS8_SB_EEEESt10_Select1stISG_ESC_SaISG_EED1Ev
 *fill*         0x0000000008076351        0x1 90909090
 .text._ZNSt8_Rb_treeIN15CSimpleIniTemplIc16SI_GenericNoCaseIcE11SI_ConvertAIcEE5EntryESt4pairIKS6_St8multimapIS6_PKcNS6_8KeyOrderESaIS7_IS8_SB_EEEESt10_Select1stISG_ESC_SaISG_EE5clearEv
                0x0000000008076352       0x53 ./objs/system.o
                0x0000000008076352                _ZNSt8_Rb_treeIN15CSimpleIniTemplIc16SI_GenericNoCaseIcE11SI_ConvertAIcEE5EntryESt4pairIKS6_St8multimapIS6_PKcNS6_8KeyOrderESaIS7_IS8_SB_EEEESt10_Select1stISG_ESC_SaISG_EE5clearEv
 *fill*         0x00000000080763a5        0x1 90909090
 .text._ZNSt8_Rb_treeIN15CSimpleIniTemplIc16SI_GenericNoCaseIcE11SI_ConvertAIcEE5EntryESt4pairIKS6_St8multimapIS6_PKcNS6_8KeyOrderESaIS7_IS8_SB_EEEESt10_Select1stISG_ESC_SaISG_EE5eraseESt17_Rb_tree_iteratorISG_E
                0x00000000080763a6       0x5a ./objs/system.o
                0x00000000080763a6                _ZNSt8_Rb_treeIN15CSimpleIniTemplIc16SI_GenericNoCaseIcE11SI_ConvertAIcEE5EntryESt4pairIKS6_St8multimapIS6_PKcNS6_8KeyOrderESaIS7_IS8_SB_EEEESt10_Select1stISG_ESC_SaISG_EE5eraseESt17_Rb_tree_iteratorISG_E
 .text._ZNSt8_Rb_treeIN15CSimpleIniTemplIc16SI_GenericNoCaseIcE11SI_ConvertAIcEE5EntryESt4pairIKS6_St8multimapIS6_PKcNS6_8KeyOrderESaIS7_IS8_SB_EEEESt10_Select1stISG_ESC_SaISG_EE5eraseESt17_Rb_tree_iteratorISG_ESM_
                0x0000000008076400       0x83 ./objs/system.o
                0x0000000008076400                _ZNSt8_Rb_treeIN15CSimpleIniTemplIc16SI_GenericNoCaseIcE11SI_ConvertAIcEE5EntryESt4pairIKS6_St8multimapIS6_PKcNS6_8KeyOrderESaIS7_IS8_SB_EEEESt10_Select1stISG_ESC_SaISG_EE5eraseESt17_Rb_tree_iteratorISG_ESM_
 *fill*         0x0000000008076483        0x1 90909090
 .text._ZN15CSimpleIniTemplIc16SI_GenericNoCaseIcE11SI_ConvertAIcEE5ResetEv
                0x0000000008076484       0xb9 ./objs/system.o
                0x0000000008076484                _ZN15CSimpleIniTemplIc16SI_GenericNoCaseIcE11SI_ConvertAIcEE5ResetEv
 *fill*         0x000000000807653d        0x1 90909090
 .text._ZN15CSimpleIniTemplIc16SI_GenericNoCaseIcE11SI_ConvertAIcEED2Ev
                0x000000000807653e       0x4e ./objs/system.o
                0x000000000807653e                _ZN15CSimpleIniTemplIc16SI_GenericNoCaseIcE11SI_ConvertAIcEED1Ev
                0x000000000807653e                _ZN15CSimpleIniTemplIc16SI_GenericNoCaseIcE11SI_ConvertAIcEED2Ev
 .text._ZNSt8_Rb_treeIN15CSimpleIniTemplIc16SI_GenericNoCaseIcE11SI_ConvertAIcEE5EntryESt4pairIKS6_PKcESt10_Select1stISB_ENS6_8KeyOrderESaISB_EE4findERS8_
                0x000000000807658c       0x99 ./objs/system.o
                0x000000000807658c                _ZNSt8_Rb_treeIN15CSimpleIniTemplIc16SI_GenericNoCaseIcE11SI_ConvertAIcEE5EntryESt4pairIKS6_PKcESt10_Select1stISB_ENS6_8KeyOrderESaISB_EE4findERS8_
 *fill*         0x0000000008076625        0x1 90909090
 .text._ZNSt8_Rb_treeIN15CSimpleIniTemplIc16SI_GenericNoCaseIcE11SI_ConvertAIcEE5EntryESt4pairIKS6_PKcESt10_Select1stISB_ENS6_8KeyOrderESaISB_EE13_Rb_tree_implISE_Lb0EEC2Ev
                0x0000000008076626       0x4b ./objs/system.o
                0x0000000008076626                _ZNSt8_Rb_treeIN15CSimpleIniTemplIc16SI_GenericNoCaseIcE11SI_ConvertAIcEE5EntryESt4pairIKS6_PKcESt10_Select1stISB_ENS6_8KeyOrderESaISB_EE13_Rb_tree_implISE_Lb0EEC1Ev
                0x0000000008076626                _ZNSt8_Rb_treeIN15CSimpleIniTemplIc16SI_GenericNoCaseIcE11SI_ConvertAIcEE5EntryESt4pairIKS6_PKcESt10_Select1stISB_ENS6_8KeyOrderESaISB_EE13_Rb_tree_implISE_Lb0EEC2Ev
 *fill*         0x0000000008076671        0x1 90909090
 .text._ZNSt8_Rb_treeIN15CSimpleIniTemplIc16SI_GenericNoCaseIcE11SI_ConvertAIcEE5EntryESt4pairIKS6_PKcESt10_Select1stISB_ENS6_8KeyOrderESaISB_EE10_M_insert_EPKSt18_Rb_tree_node_baseSJ_RKSB_
                0x0000000008076672       0xb5 ./objs/system.o
                0x0000000008076672                _ZNSt8_Rb_treeIN15CSimpleIniTemplIc16SI_GenericNoCaseIcE11SI_ConvertAIcEE5EntryESt4pairIKS6_PKcESt10_Select1stISB_ENS6_8KeyOrderESaISB_EE10_M_insert_EPKSt18_Rb_tree_node_baseSJ_RKSB_
 *fill*         0x0000000008076727        0x1 90909090
 .text._ZNSt8_Rb_treeIN15CSimpleIniTemplIc16SI_GenericNoCaseIcE11SI_ConvertAIcEE5EntryESt4pairIKS6_PKcESt10_Select1stISB_ENS6_8KeyOrderESaISB_EE15_M_insert_equalERKSB_
                0x0000000008076728       0x7e ./objs/system.o
                0x0000000008076728                _ZNSt8_Rb_treeIN15CSimpleIniTemplIc16SI_GenericNoCaseIcE11SI_ConvertAIcEE5EntryESt4pairIKS6_PKcESt10_Select1stISB_ENS6_8KeyOrderESaISB_EE15_M_insert_equalERKSB_
 .text._ZNSt8_Rb_treeIN15CSimpleIniTemplIc16SI_GenericNoCaseIcE11SI_ConvertAIcEE5EntryESt4pairIKS6_PKcESt10_Select1stISB_ENS6_8KeyOrderESaISB_EE7_M_copyEPKSt13_Rb_tree_nodeISB_EPSI_
                0x00000000080767a6       0xd8 ./objs/system.o
                0x00000000080767a6                _ZNSt8_Rb_treeIN15CSimpleIniTemplIc16SI_GenericNoCaseIcE11SI_ConvertAIcEE5EntryESt4pairIKS6_PKcESt10_Select1stISB_ENS6_8KeyOrderESaISB_EE7_M_copyEPKSt13_Rb_tree_nodeISB_EPSI_
 .text._ZNSt8_Rb_treeIN15CSimpleIniTemplIc16SI_GenericNoCaseIcE11SI_ConvertAIcEE5EntryESt4pairIKS6_PKcESt10_Select1stISB_ENS6_8KeyOrderESaISB_EEC2ERKSG_
                0x000000000807687e       0x86 ./objs/system.o
                0x000000000807687e                _ZNSt8_Rb_treeIN15CSimpleIniTemplIc16SI_GenericNoCaseIcE11SI_ConvertAIcEE5EntryESt4pairIKS6_PKcESt10_Select1stISB_ENS6_8KeyOrderESaISB_EEC1ERKSG_
                0x000000000807687e                _ZNSt8_Rb_treeIN15CSimpleIniTemplIc16SI_GenericNoCaseIcE11SI_ConvertAIcEE5EntryESt4pairIKS6_PKcESt10_Select1stISB_ENS6_8KeyOrderESaISB_EEC2ERKSG_
 .text._ZNSt8_Rb_treeIN15CSimpleIniTemplIc16SI_GenericNoCaseIcE11SI_ConvertAIcEE5EntryESt4pairIKS6_St8multimapIS6_PKcNS6_8KeyOrderESaIS7_IS8_SB_EEEESt10_Select1stISG_ESC_SaISG_EE10_M_insert_EPKSt18_Rb_tree_node_baseSN_RKSG_
                0x0000000008076904       0xf1 ./objs/system.o
                0x0000000008076904                _ZNSt8_Rb_treeIN15CSimpleIniTemplIc16SI_GenericNoCaseIcE11SI_ConvertAIcEE5EntryESt4pairIKS6_St8multimapIS6_PKcNS6_8KeyOrderESaIS7_IS8_SB_EEEESt10_Select1stISG_ESC_SaISG_EE10_M_insert_EPKSt18_Rb_tree_node_baseSN_RKSG_
 *fill*         0x00000000080769f5        0x1 90909090
 .text._ZNSt8_Rb_treeIN15CSimpleIniTemplIc16SI_GenericNoCaseIcE11SI_ConvertAIcEE5EntryESt4pairIKS6_St8multimapIS6_PKcNS6_8KeyOrderESaIS7_IS8_SB_EEEESt10_Select1stISG_ESC_SaISG_EE16_M_insert_uniqueERKSG_
                0x00000000080769f6       0xda ./objs/system.o
                0x00000000080769f6                _ZNSt8_Rb_treeIN15CSimpleIniTemplIc16SI_GenericNoCaseIcE11SI_ConvertAIcEE5EntryESt4pairIKS6_St8multimapIS6_PKcNS6_8KeyOrderESaIS7_IS8_SB_EEEESt10_Select1stISG_ESC_SaISG_EE16_M_insert_uniqueERKSG_
 .text._ZN15CSimpleIniTemplIc16SI_GenericNoCaseIcE11SI_ConvertAIcEE8AddEntryEPKcS6_S6_S6_b
                0x0000000008076ad0      0x2c4 ./objs/system.o
                0x0000000008076ad0                _ZN15CSimpleIniTemplIc16SI_GenericNoCaseIcE11SI_ConvertAIcEE8AddEntryEPKcS6_S6_S6_b
 .text._ZN15CSimpleIniTemplIc16SI_GenericNoCaseIcE11SI_ConvertAIcEE4LoadEPKcj
                0x0000000008076d94      0x155 ./objs/system.o
                0x0000000008076d94                _ZN15CSimpleIniTemplIc16SI_GenericNoCaseIcE11SI_ConvertAIcEE4LoadEPKcj
 *fill*         0x0000000008076ee9        0x1 90909090
 .text._ZN15CSimpleIniTemplIc16SI_GenericNoCaseIcE11SI_ConvertAIcEE8LoadFileEP8_IO_FILE
                0x0000000008076eea       0xe5 ./objs/system.o
                0x0000000008076eea                _ZN15CSimpleIniTemplIc16SI_GenericNoCaseIcE11SI_ConvertAIcEE8LoadFileEP8_IO_FILE
 *fill*         0x0000000008076fcf        0x1 90909090
 .text._ZN15CSimpleIniTemplIc16SI_GenericNoCaseIcE11SI_ConvertAIcEE8LoadFileEPKc
                0x0000000008076fd0       0x68 ./objs/system.o
                0x0000000008076fd0                _ZN15CSimpleIniTemplIc16SI_GenericNoCaseIcE11SI_ConvertAIcEE8LoadFileEPKc
 .text          0x0000000008077038      0x6eb ./objs/text.o
                0x0000000008077038                _ZN4Text4InitEv
                0x0000000008077082                _ZN4Text7GetFontERKSs
                0x0000000008077146                _ZN4Text8RectSizeERKSsS1_i
                0x00000000080772aa                _ZN4Text4DrawERKSsS1_5Coloribbb
 *fill*         0x0000000008077723        0x1 90909090
 .text._ZNSt6vectorIP18FT_BitmapGlyphRec_SaIS1_EED2Ev
                0x0000000008077724       0x47 ./objs/text.o
                0x0000000008077724                _ZNSt6vectorIP18FT_BitmapGlyphRec_SaIS1_EED2Ev
                0x0000000008077724                _ZNSt6vectorIP18FT_BitmapGlyphRec_SaIS1_EED1Ev
 *fill*         0x000000000807776b        0x1 90909090
 .text._ZNSt8_Rb_treeISsSt4pairIKSsP11FT_FaceRec_ESt10_Select1stIS4_ESt4lessISsESaIS4_EE13_Rb_tree_implIS8_Lb0EEC2Ev
                0x000000000807776c       0x4b ./objs/text.o
                0x000000000807776c                _ZNSt8_Rb_treeISsSt4pairIKSsP11FT_FaceRec_ESt10_Select1stIS4_ESt4lessISsESaIS4_EE13_Rb_tree_implIS8_Lb0EEC1Ev
                0x000000000807776c                _ZNSt8_Rb_treeISsSt4pairIKSsP11FT_FaceRec_ESt10_Select1stIS4_ESt4lessISsESaIS4_EE13_Rb_tree_implIS8_Lb0EEC2Ev
 *fill*         0x00000000080777b7        0x1 90909090
 .text._ZNSt8_Rb_treeISsSt4pairIKSsP11FT_FaceRec_ESt10_Select1stIS4_ESt4lessISsESaIS4_EE8_M_eraseEPSt13_Rb_tree_nodeIS4_E
                0x00000000080777b8       0x64 ./objs/text.o
                0x00000000080777b8                _ZNSt8_Rb_treeISsSt4pairIKSsP11FT_FaceRec_ESt10_Select1stIS4_ESt4lessISsESaIS4_EE8_M_eraseEPSt13_Rb_tree_nodeIS4_E
 .text._ZNSt8_Rb_treeISsSt4pairIKSsP11FT_FaceRec_ESt10_Select1stIS4_ESt4lessISsESaIS4_EED2Ev
                0x000000000807781c       0x39 ./objs/text.o
                0x000000000807781c                _ZNSt8_Rb_treeISsSt4pairIKSsP11FT_FaceRec_ESt10_Select1stIS4_ESt4lessISsESaIS4_EED1Ev
                0x000000000807781c                _ZNSt8_Rb_treeISsSt4pairIKSsP11FT_FaceRec_ESt10_Select1stIS4_ESt4lessISsESaIS4_EED2Ev
 *fill*         0x0000000008077855        0x1 90909090
 .text._ZNSt3mapISsP11FT_FaceRec_St4lessISsESaISt4pairIKSsS1_EEED2Ev
                0x0000000008077856       0x34 ./objs/text.o
                0x0000000008077856                _ZNSt3mapISsP11FT_FaceRec_St4lessISsESaISt4pairIKSsS1_EEED1Ev
                0x0000000008077856                _ZNSt3mapISsP11FT_FaceRec_St4lessISsESaISt4pairIKSsS1_EEED2Ev
 .text._ZNKSt6vectorIP18FT_BitmapGlyphRec_SaIS1_EE12_M_check_lenEjPKc
                0x000000000807788a       0x6a ./objs/text.o
                0x000000000807788a                _ZNKSt6vectorIP18FT_BitmapGlyphRec_SaIS1_EE12_M_check_lenEjPKc
 .text._ZStltIcSt11char_traitsIcESaIcEEbRKSbIT_T0_T1_ES8_
                0x00000000080778f4       0x3a ./objs/text.o
                0x00000000080778f4                _ZStltIcSt11char_traitsIcESaIcEEbRKSbIT_T0_T1_ES8_
 .text._ZNKSt8_Rb_treeISsSt4pairIKSsP11FT_FaceRec_ESt10_Select1stIS4_ESt4lessISsESaIS4_EE4findERS1_
                0x000000000807792e       0x99 ./objs/text.o
                0x000000000807792e                _ZNKSt8_Rb_treeISsSt4pairIKSsP11FT_FaceRec_ESt10_Select1stIS4_ESt4lessISsESaIS4_EE4findERS1_
 *fill*         0x00000000080779c7        0x1 90909090
 .text._ZNKSt3mapISsP11FT_FaceRec_St4lessISsESaISt4pairIKSsS1_EEE5countERS5_
                0x00000000080779c8       0x4b ./objs/text.o
                0x00000000080779c8                _ZNKSt3mapISsP11FT_FaceRec_St4lessISsESaISt4pairIKSsS1_EEE5countERS5_
 *fill*         0x0000000008077a13        0x1 90909090
 .text._ZNSt8_Rb_treeISsSt4pairIKSsP11FT_FaceRec_ESt10_Select1stIS4_ESt4lessISsESaIS4_EE11lower_boundERS1_
                0x0000000008077a14       0x75 ./objs/text.o
                0x0000000008077a14                _ZNSt8_Rb_treeISsSt4pairIKSsP11FT_FaceRec_ESt10_Select1stIS4_ESt4lessISsESaIS4_EE11lower_boundERS1_
 *fill*         0x0000000008077a89        0x1 90909090
 .text._ZNSt8_Rb_treeISsSt4pairIKSsP11FT_FaceRec_ESt10_Select1stIS4_ESt4lessISsESaIS4_EE10_M_insert_EPKSt18_Rb_tree_node_baseSD_RKS4_
                0x0000000008077a8a       0xd8 ./objs/text.o
                0x0000000008077a8a                _ZNSt8_Rb_treeISsSt4pairIKSsP11FT_FaceRec_ESt10_Select1stIS4_ESt4lessISsESaIS4_EE10_M_insert_EPKSt18_Rb_tree_node_baseSD_RKS4_
 .text._ZNSt8_Rb_treeISsSt4pairIKSsP11FT_FaceRec_ESt10_Select1stIS4_ESt4lessISsESaIS4_EE16_M_insert_uniqueERKS4_
                0x0000000008077b62       0xd8 ./objs/text.o
                0x0000000008077b62                _ZNSt8_Rb_treeISsSt4pairIKSsP11FT_FaceRec_ESt10_Select1stIS4_ESt4lessISsESaIS4_EE16_M_insert_uniqueERKS4_
 .text._ZNSt8_Rb_treeISsSt4pairIKSsP11FT_FaceRec_ESt10_Select1stIS4_ESt4lessISsESaIS4_EE17_M_insert_unique_ESt23_Rb_tree_const_iteratorIS4_ERKS4_
                0x0000000008077c3a      0x151 ./objs/text.o
                0x0000000008077c3a                _ZNSt8_Rb_treeISsSt4pairIKSsP11FT_FaceRec_ESt10_Select1stIS4_ESt4lessISsESaIS4_EE17_M_insert_unique_ESt23_Rb_tree_const_iteratorIS4_ERKS4_
 *fill*         0x0000000008077d8b        0x1 90909090
 .text._ZNSt3mapISsP11FT_FaceRec_St4lessISsESaISt4pairIKSsS1_EEE6insertESt17_Rb_tree_iteratorIS6_ERKS6_
                0x0000000008077d8c       0x43 ./objs/text.o
                0x0000000008077d8c                _ZNSt3mapISsP11FT_FaceRec_St4lessISsESaISt4pairIKSsS1_EEE6insertESt17_Rb_tree_iteratorIS6_ERKS6_
 *fill*         0x0000000008077dcf        0x1 90909090
 .text._ZNSt3mapISsP11FT_FaceRec_St4lessISsESaISt4pairIKSsS1_EEEixERS5_
                0x0000000008077dd0       0xa9 ./objs/text.o
                0x0000000008077dd0                _ZNSt3mapISsP11FT_FaceRec_St4lessISsESaISt4pairIKSsS1_EEEixERS5_
 .text._ZNSt20__copy_move_backwardILb0ELb1ESt26random_access_iterator_tagE13__copy_move_bIP18FT_BitmapGlyphRec_EEPT_PKS5_S8_S6_
                0x0000000008077e79       0x5e ./objs/text.o
                0x0000000008077e79                _ZNSt20__copy_move_backwardILb0ELb1ESt26random_access_iterator_tagE13__copy_move_bIP18FT_BitmapGlyphRec_EEPT_PKS5_S8_S6_
 .text._ZNSt11__copy_moveILb0ELb1ESt26random_access_iterator_tagE8__copy_mIP18FT_BitmapGlyphRec_EEPT_PKS5_S8_S6_
                0x0000000008077ed7       0x57 ./objs/text.o
                0x0000000008077ed7                _ZNSt11__copy_moveILb0ELb1ESt26random_access_iterator_tagE8__copy_mIP18FT_BitmapGlyphRec_EEPT_PKS5_S8_S6_
 .text._ZNSt6vectorIP18FT_BitmapGlyphRec_SaIS1_EE13_M_insert_auxEN9__gnu_cxx17__normal_iteratorIPS1_S3_EERKS1_
                0x0000000008077f2e      0x108 ./objs/text.o
                0x0000000008077f2e                _ZNSt6vectorIP18FT_BitmapGlyphRec_SaIS1_EE13_M_insert_auxEN9__gnu_cxx17__normal_iteratorIPS1_S3_EERKS1_
 .text._ZNSt6vectorIP18FT_BitmapGlyphRec_SaIS1_EE9push_backERKS1_
                0x0000000008078036       0x55 ./objs/text.o
                0x0000000008078036                _ZNSt6vectorIP18FT_BitmapGlyphRec_SaIS1_EE9push_backERKS1_
 *fill*         0x000000000807808b        0x1 90909090
 .text          0x000000000807808c     0x1738 ./objs/tilemap_xp.o
                0x00000000080782a2                _ZN7Tilemap14RefreshBitmapsEv
                0x000000000807833c                _ZN7Tilemap4InitEv
                0x0000000008078396                _ZN7Tilemap6UpdateEv
                0x00000000080783da                _ZN7Tilemap4DrawElP6Bitmap
                0x0000000008078404                _ZN7Tilemap11GetViewportEv
                0x0000000008078434                _ZN7Tilemap11SetViewportEm
                0x000000000807851c                _ZN7Tilemap10GetTilesetEv
                0x000000000807854c                _ZN7Tilemap10SetTilesetEm
                0x000000000807857e                _ZN7Tilemap10GetMapDataEv
                0x00000000080785ae                _ZN7Tilemap10SetMapDataEm
                0x00000000080786b2                _ZN7Tilemap12GetFlashDataEv
                0x00000000080786e2                _ZN7Tilemap12SetFlashDataEm
                0x0000000008078714                _ZN7Tilemap13GetPrioritiesEv
                0x0000000008078744                _ZN7Tilemap13SetPrioritiesEm
                0x0000000008078794                _ZN7Tilemap10GetVisibleEv
                0x00000000080787c4                _ZN7Tilemap10SetVisibleEb
                0x00000000080787f6                _ZN7Tilemap5GetOxEv
                0x0000000008078826                _ZN7Tilemap5SetOxEi
                0x0000000008078858                _ZN7Tilemap5GetOyEv
                0x0000000008078888                _ZN7Tilemap5SetOyEi
                0x00000000080788ba                _ZN7Tilemap10IsDisposedEm
                0x0000000008078900                _ZN7Tilemap3GetEm
                0x0000000008078940                _ZN7Tilemap7DisposeEm
                0x00000000080789fa                _ZN7TilemapD1Ev
                0x00000000080789fa                _ZN7TilemapD2Ev
                0x0000000008078b08                _ZN7TilemapD0Ev
                0x0000000008078b48                _ZN7TilemapC1Em
                0x0000000008078b48                _ZN7TilemapC2Em
                0x0000000008078c30                _ZN7Tilemap3NewEm
                0x0000000008078d32                _ZN7Tilemap11RefreshDataEv
                0x0000000008078fce                _ZN7Tilemap4DrawEl
 .text._ZNSt6vectorIN7Tilemap8TileDataESaIS1_EED2Ev
                0x00000000080797c4       0x36 ./objs/tilemap_xp.o
                0x00000000080797c4                _ZNSt6vectorIN7Tilemap8TileDataESaIS1_EED1Ev
                0x00000000080797c4                _ZNSt6vectorIN7Tilemap8TileDataESaIS1_EED2Ev
 .text._ZNKSt8_Rb_treeImSt4pairIKmSt3mapIiS2_IiP6BitmapSt4lessIiESaIS0_IKiS4_EEES6_SaIS0_IS7_SA_EEEESt10_Select1stISE_ES5_ImESaISE_EE4findERS1_
                0x00000000080797fa       0x72 ./objs/tilemap_xp.o
                0x00000000080797fa                _ZNKSt8_Rb_treeImSt4pairIKmSt3mapIiS2_IiP6BitmapSt4lessIiESaIS0_IKiS4_EEES6_SaIS0_IS7_SA_EEEESt10_Select1stISE_ES5_ImESaISE_EE4findERS1_
 .text._ZNKSt3mapImS_IiS_IiP6BitmapSt4lessIiESaISt4pairIKiS1_EEES3_SaIS4_IS5_S8_EEES2_ImESaIS4_IKmSB_EEE5countERSD_
                0x000000000807986c       0x4b ./objs/tilemap_xp.o
                0x000000000807986c                _ZNKSt3mapImS_IiS_IiP6BitmapSt4lessIiESaISt4pairIKiS1_EEES3_SaIS4_IS5_S8_EEES2_ImESaIS4_IKmSB_EEE5countERSD_
 *fill*         0x00000000080798b7        0x1 90909090
 .text._ZNKSt8_Rb_treeIiSt4pairIKiSt3mapIiP6BitmapSt4lessIiESaIS0_IS1_S4_EEEESt10_Select1stISA_ES6_SaISA_EE4findERS1_
                0x00000000080798b8       0x72 ./objs/tilemap_xp.o
                0x00000000080798b8                _ZNKSt8_Rb_treeIiSt4pairIKiSt3mapIiP6BitmapSt4lessIiESaIS0_IS1_S4_EEEESt10_Select1stISA_ES6_SaISA_EE4findERS1_
 .text._ZNKSt3mapIiS_IiP6BitmapSt4lessIiESaISt4pairIKiS1_EEES3_SaIS4_IS5_S8_EEE5countERS5_
                0x000000000807992a       0x4b ./objs/tilemap_xp.o
                0x000000000807992a                _ZNKSt3mapIiS_IiP6BitmapSt4lessIiESaISt4pairIKiS1_EEES3_SaIS4_IS5_S8_EEE5countERS5_
 *fill*         0x0000000008079975        0x1 90909090
 .text._ZNKSt8_Rb_treeIiSt4pairIKiP6BitmapESt10_Select1stIS4_ESt4lessIiESaIS4_EE4findERS1_
                0x0000000008079976       0x72 ./objs/tilemap_xp.o
                0x0000000008079976                _ZNKSt8_Rb_treeIiSt4pairIKiP6BitmapESt10_Select1stIS4_ESt4lessIiESaIS4_EE4findERS1_
 .text._ZNKSt3mapIiP6BitmapSt4lessIiESaISt4pairIKiS1_EEE5countERS5_
                0x00000000080799e8       0x4b ./objs/tilemap_xp.o
                0x00000000080799e8                _ZNKSt3mapIiP6BitmapSt4lessIiESaISt4pairIKiS1_EEE5countERS5_
 *fill*         0x0000000008079a33        0x1 90909090
 .text._ZNSt8_Rb_treeImSt4pairIKmSt3mapIiS2_IiP6BitmapSt4lessIiESaIS0_IKiS4_EEES6_SaIS0_IS7_SA_EEEESt10_Select1stISE_ES5_ImESaISE_EE13_Rb_tree_implISH_Lb0EEC2Ev
                0x0000000008079a34       0x4b ./objs/tilemap_xp.o
                0x0000000008079a34                _ZNSt8_Rb_treeImSt4pairIKmSt3mapIiS2_IiP6BitmapSt4lessIiESaIS0_IKiS4_EEES6_SaIS0_IS7_SA_EEEESt10_Select1stISE_ES5_ImESaISE_EE13_Rb_tree_implISH_Lb0EEC2Ev
                0x0000000008079a34                _ZNSt8_Rb_treeImSt4pairIKmSt3mapIiS2_IiP6BitmapSt4lessIiESaIS0_IKiS4_EEES6_SaIS0_IS7_SA_EEEESt10_Select1stISE_ES5_ImESaISE_EE13_Rb_tree_implISH_Lb0EEC1Ev
 *fill*         0x0000000008079a7f        0x1 90909090
 .text._ZNSt8_Rb_treeImSt4pairIKmSt3mapIiS2_IiP6BitmapSt4lessIiESaIS0_IKiS4_EEES6_SaIS0_IS7_SA_EEEESt10_Select1stISE_ES5_ImESaISE_EE11lower_boundERS1_
                0x0000000008079a80       0x5f ./objs/tilemap_xp.o
                0x0000000008079a80                _ZNSt8_Rb_treeImSt4pairIKmSt3mapIiS2_IiP6BitmapSt4lessIiESaIS0_IKiS4_EEES6_SaIS0_IS7_SA_EEEESt10_Select1stISE_ES5_ImESaISE_EE11lower_boundERS1_
 *fill*         0x0000000008079adf        0x1 90909090
 .text._ZNSt8_Rb_treeIiSt4pairIKiSt3mapIiP6BitmapSt4lessIiESaIS0_IS1_S4_EEEESt10_Select1stISA_ES6_SaISA_EE11lower_boundERS1_
                0x0000000008079ae0       0x5f ./objs/tilemap_xp.o
                0x0000000008079ae0                _ZNSt8_Rb_treeIiSt4pairIKiSt3mapIiP6BitmapSt4lessIiESaIS0_IS1_S4_EEEESt10_Select1stISA_ES6_SaISA_EE11lower_boundERS1_
 *fill*         0x0000000008079b3f        0x1 90909090
 .text._ZNSt8_Rb_treeIiSt4pairIKiP6BitmapESt10_Select1stIS4_ESt4lessIiESaIS4_EE8_M_eraseEPSt13_Rb_tree_nodeIS4_E
                0x0000000008079b40       0x59 ./objs/tilemap_xp.o
                0x0000000008079b40                _ZNSt8_Rb_treeIiSt4pairIKiP6BitmapESt10_Select1stIS4_ESt4lessIiESaIS4_EE8_M_eraseEPSt13_Rb_tree_nodeIS4_E
 *fill*         0x0000000008079b99        0x1 90909090
 .text._ZNSt8_Rb_treeIiSt4pairIKiP6BitmapESt10_Select1stIS4_ESt4lessIiESaIS4_EED2Ev
                0x0000000008079b9a       0x39 ./objs/tilemap_xp.o
                0x0000000008079b9a                _ZNSt8_Rb_treeIiSt4pairIKiP6BitmapESt10_Select1stIS4_ESt4lessIiESaIS4_EED2Ev
                0x0000000008079b9a                _ZNSt8_Rb_treeIiSt4pairIKiP6BitmapESt10_Select1stIS4_ESt4lessIiESaIS4_EED1Ev
 *fill*         0x0000000008079bd3        0x1 90909090
 .text._ZNSt8_Rb_treeIiSt4pairIKiSt3mapIiP6BitmapSt4lessIiESaIS0_IS1_S4_EEEESt10_Select1stISA_ES6_SaISA_EE8_M_eraseEPSt13_Rb_tree_nodeISA_E
                0x0000000008079bd4       0x64 ./objs/tilemap_xp.o
                0x0000000008079bd4                _ZNSt8_Rb_treeIiSt4pairIKiSt3mapIiP6BitmapSt4lessIiESaIS0_IS1_S4_EEEESt10_Select1stISA_ES6_SaISA_EE8_M_eraseEPSt13_Rb_tree_nodeISA_E
 .text._ZNSt8_Rb_treeIiSt4pairIKiSt3mapIiP6BitmapSt4lessIiESaIS0_IS1_S4_EEEESt10_Select1stISA_ES6_SaISA_EED2Ev
                0x0000000008079c38       0x39 ./objs/tilemap_xp.o
                0x0000000008079c38                _ZNSt8_Rb_treeIiSt4pairIKiSt3mapIiP6BitmapSt4lessIiESaIS0_IS1_S4_EEEESt10_Select1stISA_ES6_SaISA_EED2Ev
                0x0000000008079c38                _ZNSt8_Rb_treeIiSt4pairIKiSt3mapIiP6BitmapSt4lessIiESaIS0_IS1_S4_EEEESt10_Select1stISA_ES6_SaISA_EED1Ev
 *fill*         0x0000000008079c71        0x1 90909090
 .text._ZNSt8_Rb_treeImSt4pairIKmSt3mapIiS2_IiP6BitmapSt4lessIiESaIS0_IKiS4_EEES6_SaIS0_IS7_SA_EEEESt10_Select1stISE_ES5_ImESaISE_EE8_M_eraseEPSt13_Rb_tree_nodeISE_E
                0x0000000008079c72       0x64 ./objs/tilemap_xp.o
                0x0000000008079c72                _ZNSt8_Rb_treeImSt4pairIKmSt3mapIiS2_IiP6BitmapSt4lessIiESaIS0_IKiS4_EEES6_SaIS0_IS7_SA_EEEESt10_Select1stISE_ES5_ImESaISE_EE8_M_eraseEPSt13_Rb_tree_nodeISE_E
 .text._ZNSt8_Rb_treeImSt4pairIKmSt3mapIiS2_IiP6BitmapSt4lessIiESaIS0_IKiS4_EEES6_SaIS0_IS7_SA_EEEESt10_Select1stISE_ES5_ImESaISE_EED2Ev
                0x0000000008079cd6       0x39 ./objs/tilemap_xp.o
                0x0000000008079cd6                _ZNSt8_Rb_treeImSt4pairIKmSt3mapIiS2_IiP6BitmapSt4lessIiESaIS0_IKiS4_EEES6_SaIS0_IS7_SA_EEEESt10_Select1stISE_ES5_ImESaISE_EED2Ev
                0x0000000008079cd6                _ZNSt8_Rb_treeImSt4pairIKmSt3mapIiS2_IiP6BitmapSt4lessIiESaIS0_IKiS4_EEES6_SaIS0_IS7_SA_EEEESt10_Select1stISE_ES5_ImESaISE_EED1Ev
 *fill*         0x0000000008079d0f        0x1 90909090
 .text._ZNSt8_Rb_treeIiSt4pairIKiP6BitmapESt10_Select1stIS4_ESt4lessIiESaIS4_EE11lower_boundERS1_
                0x0000000008079d10       0x5f ./objs/tilemap_xp.o
                0x0000000008079d10                _ZNSt8_Rb_treeIiSt4pairIKiP6BitmapESt10_Select1stIS4_ESt4lessIiESaIS4_EE11lower_boundERS1_
 *fill*         0x0000000008079d6f        0x1 90909090
 .text._ZNSt8_Rb_treeIiSt4pairIKiSt3mapIiP6BitmapSt4lessIiESaIS0_IS1_S4_EEEESt10_Select1stISA_ES6_SaISA_EE13_Rb_tree_implIS6_Lb0EEC2Ev
                0x0000000008079d70       0x4b ./objs/tilemap_xp.o
                0x0000000008079d70                _ZNSt8_Rb_treeIiSt4pairIKiSt3mapIiP6BitmapSt4lessIiESaIS0_IS1_S4_EEEESt10_Select1stISA_ES6_SaISA_EE13_Rb_tree_implIS6_Lb0EEC1Ev
                0x0000000008079d70                _ZNSt8_Rb_treeIiSt4pairIKiSt3mapIiP6BitmapSt4lessIiESaIS0_IS1_S4_EEEESt10_Select1stISA_ES6_SaISA_EE13_Rb_tree_implIS6_Lb0EEC2Ev
 *fill*         0x0000000008079dbb        0x1 90909090
 .text._ZNSt8_Rb_treeIiSt4pairIKiP6BitmapESt10_Select1stIS4_ESt4lessIiESaIS4_EE13_Rb_tree_implIS8_Lb0EEC2Ev
                0x0000000008079dbc       0x4b ./objs/tilemap_xp.o
                0x0000000008079dbc                _ZNSt8_Rb_treeIiSt4pairIKiP6BitmapESt10_Select1stIS4_ESt4lessIiESaIS4_EE13_Rb_tree_implIS8_Lb0EEC1Ev
                0x0000000008079dbc                _ZNSt8_Rb_treeIiSt4pairIKiP6BitmapESt10_Select1stIS4_ESt4lessIiESaIS4_EE13_Rb_tree_implIS8_Lb0EEC2Ev
 *fill*         0x0000000008079e07        0x1 90909090
 .text._ZNSt8_Rb_treeIiSt4pairIKiP6BitmapESt10_Select1stIS4_ESt4lessIiESaIS4_EE10_M_insert_EPKSt18_Rb_tree_node_baseSD_RKS4_
                0x0000000008079e08       0x83 ./objs/tilemap_xp.o
                0x0000000008079e08                _ZNSt8_Rb_treeIiSt4pairIKiP6BitmapESt10_Select1stIS4_ESt4lessIiESaIS4_EE10_M_insert_EPKSt18_Rb_tree_node_baseSD_RKS4_
 *fill*         0x0000000008079e8b        0x1 90909090
 .text._ZNSt8_Rb_treeIiSt4pairIKiP6BitmapESt10_Select1stIS4_ESt4lessIiESaIS4_EE16_M_insert_uniqueERKS4_
                0x0000000008079e8c       0xb4 ./objs/tilemap_xp.o
                0x0000000008079e8c                _ZNSt8_Rb_treeIiSt4pairIKiP6BitmapESt10_Select1stIS4_ESt4lessIiESaIS4_EE16_M_insert_uniqueERKS4_
 .text._ZNSt8_Rb_treeIiSt4pairIKiP6BitmapESt10_Select1stIS4_ESt4lessIiESaIS4_EE17_M_insert_unique_ESt23_Rb_tree_const_iteratorIS4_ERKS4_
                0x0000000008079f40      0x102 ./objs/tilemap_xp.o
                0x0000000008079f40                _ZNSt8_Rb_treeIiSt4pairIKiP6BitmapESt10_Select1stIS4_ESt4lessIiESaIS4_EE17_M_insert_unique_ESt23_Rb_tree_const_iteratorIS4_ERKS4_
 .text._ZNSt3mapIiP6BitmapSt4lessIiESaISt4pairIKiS1_EEE6insertESt17_Rb_tree_iteratorIS6_ERKS6_
                0x000000000807a042       0x43 ./objs/tilemap_xp.o
                0x000000000807a042                _ZNSt3mapIiP6BitmapSt4lessIiESaISt4pairIKiS1_EEE6insertESt17_Rb_tree_iteratorIS6_ERKS6_
 *fill*         0x000000000807a085        0x1 90909090
 .text._ZNSt3mapIiP6BitmapSt4lessIiESaISt4pairIKiS1_EEEixERS5_
                0x000000000807a086       0x79 ./objs/tilemap_xp.o
                0x000000000807a086                _ZNSt3mapIiP6BitmapSt4lessIiESaISt4pairIKiS1_EEEixERS5_
 .text._ZNSt12_Destroy_auxILb0EE9__destroyIPSt6vectorIN7Tilemap8TileDataESaIS4_EEEEvT_S8_
                0x000000000807a0ff       0x4b ./objs/tilemap_xp.o
                0x000000000807a0ff                _ZNSt12_Destroy_auxILb0EE9__destroyIPSt6vectorIN7Tilemap8TileDataESaIS4_EEEEvT_S8_
 .text._ZNSt6vectorIS_IN7Tilemap8TileDataESaIS1_EESaIS3_EED2Ev
                0x000000000807a14a       0x46 ./objs/tilemap_xp.o
                0x000000000807a14a                _ZNSt6vectorIS_IN7Tilemap8TileDataESaIS1_EESaIS3_EED1Ev
                0x000000000807a14a                _ZNSt6vectorIS_IN7Tilemap8TileDataESaIS1_EESaIS3_EED2Ev
 .text._ZNSt12_Destroy_auxILb0EE9__destroyIPSt6vectorIS2_IN7Tilemap8TileDataESaIS4_EESaIS6_EEEEvT_SA_
                0x000000000807a190       0x4b ./objs/tilemap_xp.o
                0x000000000807a190                _ZNSt12_Destroy_auxILb0EE9__destroyIPSt6vectorIS2_IN7Tilemap8TileDataESaIS4_EESaIS6_EEEEvT_SA_
 *fill*         0x000000000807a1db        0x1 90909090
 .text._ZNSt6vectorIS_IS_IN7Tilemap8TileDataESaIS1_EESaIS3_EESaIS5_EED2Ev
                0x000000000807a1dc       0x46 ./objs/tilemap_xp.o
                0x000000000807a1dc                _ZNSt6vectorIS_IS_IN7Tilemap8TileDataESaIS1_EESaIS3_EESaIS5_EED2Ev
                0x000000000807a1dc                _ZNSt6vectorIS_IS_IN7Tilemap8TileDataESaIS1_EESaIS3_EESaIS5_EED1Ev
 .text._ZNKSt6vectorIS_IS_IN7Tilemap8TileDataESaIS1_EESaIS3_EESaIS5_EE12_M_check_lenEjPKc
                0x000000000807a222       0x70 ./objs/tilemap_xp.o
                0x000000000807a222                _ZNKSt6vectorIS_IS_IN7Tilemap8TileDataESaIS1_EESaIS3_EESaIS5_EE12_M_check_lenEjPKc
 .text._ZNKSt6vectorIS_IN7Tilemap8TileDataESaIS1_EESaIS3_EE12_M_check_lenEjPKc
                0x000000000807a292       0x70 ./objs/tilemap_xp.o
                0x000000000807a292                _ZNKSt6vectorIS_IN7Tilemap8TileDataESaIS1_EESaIS3_EE12_M_check_lenEjPKc
 .text._ZNKSt6vectorIN7Tilemap8TileDataESaIS1_EE12_M_check_lenEjPKc
                0x000000000807a302       0x6a ./objs/tilemap_xp.o
                0x000000000807a302                _ZNKSt6vectorIN7Tilemap8TileDataESaIS1_EE12_M_check_lenEjPKc
 .text._ZNSt8_Rb_treeIiSt4pairIKiP6BitmapESt10_Select1stIS4_ESt4lessIiESaIS4_EE7_M_copyEPKSt13_Rb_tree_nodeIS4_EPSC_
                0x000000000807a36c      0x102 ./objs/tilemap_xp.o
                0x000000000807a36c                _ZNSt8_Rb_treeIiSt4pairIKiP6BitmapESt10_Select1stIS4_ESt4lessIiESaIS4_EE7_M_copyEPKSt13_Rb_tree_nodeIS4_EPSC_
 .text._ZNSt8_Rb_treeIiSt4pairIKiP6BitmapESt10_Select1stIS4_ESt4lessIiESaIS4_EEC2ERKSA_
                0x000000000807a46e       0x86 ./objs/tilemap_xp.o
                0x000000000807a46e                _ZNSt8_Rb_treeIiSt4pairIKiP6BitmapESt10_Select1stIS4_ESt4lessIiESaIS4_EEC1ERKSA_
                0x000000000807a46e                _ZNSt8_Rb_treeIiSt4pairIKiP6BitmapESt10_Select1stIS4_ESt4lessIiESaIS4_EEC2ERKSA_
 .text._ZNSt8_Rb_treeIiSt4pairIKiSt3mapIiP6BitmapSt4lessIiESaIS0_IS1_S4_EEEESt10_Select1stISA_ES6_SaISA_EE7_M_copyEPKSt13_Rb_tree_nodeISA_EPSG_
                0x000000000807a4f4      0x102 ./objs/tilemap_xp.o
                0x000000000807a4f4                _ZNSt8_Rb_treeIiSt4pairIKiSt3mapIiP6BitmapSt4lessIiESaIS0_IS1_S4_EEEESt10_Select1stISA_ES6_SaISA_EE7_M_copyEPKSt13_Rb_tree_nodeISA_EPSG_
 .text._ZNSt8_Rb_treeIiSt4pairIKiSt3mapIiP6BitmapSt4lessIiESaIS0_IS1_S4_EEEESt10_Select1stISA_ES6_SaISA_EEC2ERKSE_
                0x000000000807a5f6       0x86 ./objs/tilemap_xp.o
                0x000000000807a5f6                _ZNSt8_Rb_treeIiSt4pairIKiSt3mapIiP6BitmapSt4lessIiESaIS0_IS1_S4_EEEESt10_Select1stISA_ES6_SaISA_EEC2ERKSE_
                0x000000000807a5f6                _ZNSt8_Rb_treeIiSt4pairIKiSt3mapIiP6BitmapSt4lessIiESaIS0_IS1_S4_EEEESt10_Select1stISA_ES6_SaISA_EEC1ERKSE_
 .text._ZNSt8_Rb_treeImSt4pairIKmSt3mapIiS2_IiP6BitmapSt4lessIiESaIS0_IKiS4_EEES6_SaIS0_IS7_SA_EEEESt10_Select1stISE_ES5_ImESaISE_EE10_M_insert_EPKSt18_Rb_tree_node_baseSM_RKSE_
                0x000000000807a67c       0xd3 ./objs/tilemap_xp.o
                0x000000000807a67c                _ZNSt8_Rb_treeImSt4pairIKmSt3mapIiS2_IiP6BitmapSt4lessIiESaIS0_IKiS4_EEES6_SaIS0_IS7_SA_EEEESt10_Select1stISE_ES5_ImESaISE_EE10_M_insert_EPKSt18_Rb_tree_node_baseSM_RKSE_
 *fill*         0x000000000807a74f        0x1 90909090
 .text._ZNSt8_Rb_treeImSt4pairIKmSt3mapIiS2_IiP6BitmapSt4lessIiESaIS0_IKiS4_EEES6_SaIS0_IS7_SA_EEEESt10_Select1stISE_ES5_ImESaISE_EE16_M_insert_uniqueERKSE_
                0x000000000807a750       0xb4 ./objs/tilemap_xp.o
                0x000000000807a750                _ZNSt8_Rb_treeImSt4pairIKmSt3mapIiS2_IiP6BitmapSt4lessIiESaIS0_IKiS4_EEES6_SaIS0_IS7_SA_EEEESt10_Select1stISE_ES5_ImESaISE_EE16_M_insert_uniqueERKSE_
 .text._ZNSt8_Rb_treeImSt4pairIKmSt3mapIiS2_IiP6BitmapSt4lessIiESaIS0_IKiS4_EEES6_SaIS0_IS7_SA_EEEESt10_Select1stISE_ES5_ImESaISE_EE17_M_insert_unique_ESt23_Rb_tree_const_iteratorISE_ERKSE_
                0x000000000807a804      0x102 ./objs/tilemap_xp.o
                0x000000000807a804                _ZNSt8_Rb_treeImSt4pairIKmSt3mapIiS2_IiP6BitmapSt4lessIiESaIS0_IKiS4_EEES6_SaIS0_IS7_SA_EEEESt10_Select1stISE_ES5_ImESaISE_EE17_M_insert_unique_ESt23_Rb_tree_const_iteratorISE_ERKSE_
 .text._ZNSt3mapImS_IiS_IiP6BitmapSt4lessIiESaISt4pairIKiS1_EEES3_SaIS4_IS5_S8_EEES2_ImESaIS4_IKmSB_EEE6insertESt17_Rb_tree_iteratorISE_ERKSE_
                0x000000000807a906       0x43 ./objs/tilemap_xp.o
                0x000000000807a906                _ZNSt3mapImS_IiS_IiP6BitmapSt4lessIiESaISt4pairIKiS1_EEES3_SaIS4_IS5_S8_EEES2_ImESaIS4_IKmSB_EEE6insertESt17_Rb_tree_iteratorISE_ERKSE_
 *fill*         0x000000000807a949        0x1 90909090
 .text._ZNSt3mapImS_IiS_IiP6BitmapSt4lessIiESaISt4pairIKiS1_EEES3_SaIS4_IS5_S8_EEES2_ImESaIS4_IKmSB_EEEixERSD_
                0x000000000807a94a       0xd1 ./objs/tilemap_xp.o
                0x000000000807a94a                _ZNSt3mapImS_IiS_IiP6BitmapSt4lessIiESaISt4pairIKiS1_EEES3_SaIS4_IS5_S8_EEES2_ImESaIS4_IKmSB_EEEixERSD_
 *fill*         0x000000000807aa1b        0x1 90909090
 .text._ZNSt8_Rb_treeIiSt4pairIKiSt3mapIiP6BitmapSt4lessIiESaIS0_IS1_S4_EEEESt10_Select1stISA_ES6_SaISA_EE10_M_insert_EPKSt18_Rb_tree_node_baseSH_RKSA_
                0x000000000807aa1c       0x83 ./objs/tilemap_xp.o
                0x000000000807aa1c                _ZNSt8_Rb_treeIiSt4pairIKiSt3mapIiP6BitmapSt4lessIiESaIS0_IS1_S4_EEEESt10_Select1stISA_ES6_SaISA_EE10_M_insert_EPKSt18_Rb_tree_node_baseSH_RKSA_
 *fill*         0x000000000807aa9f        0x1 90909090
 .text._ZNSt8_Rb_treeIiSt4pairIKiSt3mapIiP6BitmapSt4lessIiESaIS0_IS1_S4_EEEESt10_Select1stISA_ES6_SaISA_EE16_M_insert_uniqueERKSA_
                0x000000000807aaa0       0xb4 ./objs/tilemap_xp.o
                0x000000000807aaa0                _ZNSt8_Rb_treeIiSt4pairIKiSt3mapIiP6BitmapSt4lessIiESaIS0_IS1_S4_EEEESt10_Select1stISA_ES6_SaISA_EE16_M_insert_uniqueERKSA_
 .text._ZNSt8_Rb_treeIiSt4pairIKiSt3mapIiP6BitmapSt4lessIiESaIS0_IS1_S4_EEEESt10_Select1stISA_ES6_SaISA_EE17_M_insert_unique_ESt23_Rb_tree_const_iteratorISA_ERKSA_
                0x000000000807ab54      0x102 ./objs/tilemap_xp.o
                0x000000000807ab54                _ZNSt8_Rb_treeIiSt4pairIKiSt3mapIiP6BitmapSt4lessIiESaIS0_IS1_S4_EEEESt10_Select1stISA_ES6_SaISA_EE17_M_insert_unique_ESt23_Rb_tree_const_iteratorISA_ERKSA_
 .text._ZNSt3mapIiS_IiP6BitmapSt4lessIiESaISt4pairIKiS1_EEES3_SaIS4_IS5_S8_EEE6insertESt17_Rb_tree_iteratorIS9_ERKS9_
                0x000000000807ac56       0x43 ./objs/tilemap_xp.o
                0x000000000807ac56                _ZNSt3mapIiS_IiP6BitmapSt4lessIiESaISt4pairIKiS1_EEES3_SaIS4_IS5_S8_EEE6insertESt17_Rb_tree_iteratorIS9_ERKS9_
 *fill*         0x000000000807ac99        0x1 90909090
 .text._ZNSt3mapIiS_IiP6BitmapSt4lessIiESaISt4pairIKiS1_EEES3_SaIS4_IS5_S8_EEEixERS5_
                0x000000000807ac9a       0xd1 ./objs/tilemap_xp.o
                0x000000000807ac9a                _ZNSt3mapIiS_IiP6BitmapSt4lessIiESaISt4pairIKiS1_EEES3_SaIS4_IS5_S8_EEEixERS5_
 .text._ZSt8__fill_aIPN7Tilemap8TileDataES1_EN9__gnu_cxx11__enable_ifIXntsrSt11__is_scalarIT0_E7__valueEvE6__typeET_SA_RKS6_
                0x000000000807ad6b       0x4d ./objs/tilemap_xp.o
                0x000000000807ad6b                _ZSt8__fill_aIPN7Tilemap8TileDataES1_EN9__gnu_cxx11__enable_ifIXntsrSt11__is_scalarIT0_E7__valueEvE6__typeET_SA_RKS6_
 .text._ZNSt20__copy_move_backwardILb0ELb1ESt26random_access_iterator_tagE13__copy_move_bIN7Tilemap8TileDataEEEPT_PKS5_S8_S6_
                0x000000000807adb8       0x5e ./objs/tilemap_xp.o
                0x000000000807adb8                _ZNSt20__copy_move_backwardILb0ELb1ESt26random_access_iterator_tagE13__copy_move_bIN7Tilemap8TileDataEEEPT_PKS5_S8_S6_
 .text._ZNSt11__copy_moveILb0ELb1ESt26random_access_iterator_tagE8__copy_mIN7Tilemap8TileDataEEEPT_PKS5_S8_S6_
                0x000000000807ae16       0x57 ./objs/tilemap_xp.o
                0x000000000807ae16                _ZNSt11__copy_moveILb0ELb1ESt26random_access_iterator_tagE8__copy_mIN7Tilemap8TileDataEEEPT_PKS5_S8_S6_
 *fill*         0x000000000807ae6d        0x1 90909090
 .text._ZNSt6vectorIN7Tilemap8TileDataESaIS1_EEC2ERKS3_
                0x000000000807ae6e       0x79 ./objs/tilemap_xp.o
                0x000000000807ae6e                _ZNSt6vectorIN7Tilemap8TileDataESaIS1_EEC2ERKS3_
                0x000000000807ae6e                _ZNSt6vectorIN7Tilemap8TileDataESaIS1_EEC1ERKS3_
 .text._ZSt10_ConstructISt6vectorIN7Tilemap8TileDataESaIS2_EES4_EvPT_RKT0_
                0x000000000807aee7       0x4c ./objs/tilemap_xp.o
                0x000000000807aee7                _ZSt10_ConstructISt6vectorIN7Tilemap8TileDataESaIS2_EES4_EvPT_RKT0_
 .text._ZNSt20__uninitialized_copyILb0EE18uninitialized_copyIN9__gnu_cxx17__normal_iteratorIPKSt6vectorIN7Tilemap8TileDataESaIS6_EES4_IS8_SaIS8_EEEEPS8_EET0_T_SG_SF_
                0x000000000807af33       0x8f ./objs/tilemap_xp.o
                0x000000000807af33                _ZNSt20__uninitialized_copyILb0EE18uninitialized_copyIN9__gnu_cxx17__normal_iteratorIPKSt6vectorIN7Tilemap8TileDataESaIS6_EES4_IS8_SaIS8_EEEEPS8_EET0_T_SG_SF_
 .text._ZNSt6vectorIS_IN7Tilemap8TileDataESaIS1_EESaIS3_EEC2ERKS5_
                0x000000000807afc2       0x95 ./objs/tilemap_xp.o
                0x000000000807afc2                _ZNSt6vectorIS_IN7Tilemap8TileDataESaIS1_EESaIS3_EEC1ERKS5_
                0x000000000807afc2                _ZNSt6vectorIS_IN7Tilemap8TileDataESaIS1_EESaIS3_EEC2ERKS5_
 .text._ZSt10_ConstructISt6vectorIS0_IN7Tilemap8TileDataESaIS2_EESaIS4_EES6_EvPT_RKT0_
                0x000000000807b057       0x4c ./objs/tilemap_xp.o
                0x000000000807b057                _ZSt10_ConstructISt6vectorIS0_IN7Tilemap8TileDataESaIS2_EESaIS4_EES6_EvPT_RKT0_
 .text._ZNSt22__uninitialized_fill_nILb0EE20uninitialized_fill_nIPSt6vectorIS2_IN7Tilemap8TileDataESaIS4_EESaIS6_EEjS8_EEvT_T0_RKT1_
                0x000000000807b0a3       0x84 ./objs/tilemap_xp.o
                0x000000000807b0a3                _ZNSt22__uninitialized_fill_nILb0EE20uninitialized_fill_nIPSt6vectorIS2_IN7Tilemap8TileDataESaIS4_EESaIS6_EEjS8_EEvT_T0_RKT1_
 .text._ZNSt20__uninitialized_copyILb0EE18uninitialized_copyIPSt6vectorIS2_IN7Tilemap8TileDataESaIS4_EESaIS6_EES9_EET0_T_SB_SA_
                0x000000000807b127       0x88 ./objs/tilemap_xp.o
                0x000000000807b127                _ZNSt20__uninitialized_copyILb0EE18uninitialized_copyIPSt6vectorIS2_IN7Tilemap8TileDataESaIS4_EESaIS6_EES9_EET0_T_SB_SA_
 .text._ZNSt20__uninitialized_copyILb0EE18uninitialized_copyIPSt6vectorIN7Tilemap8TileDataESaIS4_EES7_EET0_T_S9_S8_
                0x000000000807b1af       0x88 ./objs/tilemap_xp.o
                0x000000000807b1af                _ZNSt20__uninitialized_copyILb0EE18uninitialized_copyIPSt6vectorIN7Tilemap8TileDataESaIS4_EES7_EET0_T_S9_S8_
 .text._ZNSt22__uninitialized_fill_nILb0EE20uninitialized_fill_nIPSt6vectorIN7Tilemap8TileDataESaIS4_EEjS6_EEvT_T0_RKT1_
                0x000000000807b237       0x84 ./objs/tilemap_xp.o
                0x000000000807b237                _ZNSt22__uninitialized_fill_nILb0EE20uninitialized_fill_nIPSt6vectorIN7Tilemap8TileDataESaIS4_EEjS6_EEvT_T0_RKT1_
 *fill*         0x000000000807b2bb        0x1 90909090
 .text._ZNSt6vectorIN7Tilemap8TileDataESaIS1_EEaSERKS3_
                0x000000000807b2bc       0xd4 ./objs/tilemap_xp.o
                0x000000000807b2bc                _ZNSt6vectorIN7Tilemap8TileDataESaIS1_EEaSERKS3_
 .text._ZNSt20__copy_move_backwardILb0ELb0ESt26random_access_iterator_tagE13__copy_move_bIPSt6vectorIN7Tilemap8TileDataESaIS5_EES8_EET0_T_SA_S9_
                0x000000000807b390       0x61 ./objs/tilemap_xp.o
                0x000000000807b390                _ZNSt20__copy_move_backwardILb0ELb0ESt26random_access_iterator_tagE13__copy_move_bIPSt6vectorIN7Tilemap8TileDataESaIS5_EES8_EET0_T_SA_S9_
 .text._ZSt8__fill_aIPSt6vectorIN7Tilemap8TileDataESaIS2_EES4_EN9__gnu_cxx11__enable_ifIXntsrSt11__is_scalarIT0_E7__valueEvE6__typeET_SD_RKS9_
                0x000000000807b3f1       0x50 ./objs/tilemap_xp.o
                0x000000000807b3f1                _ZSt8__fill_aIPSt6vectorIN7Tilemap8TileDataESaIS2_EES4_EN9__gnu_cxx11__enable_ifIXntsrSt11__is_scalarIT0_E7__valueEvE6__typeET_SD_RKS9_
 *fill*         0x000000000807b441        0x1 90909090
 .text._ZNSt6vectorIS_IN7Tilemap8TileDataESaIS1_EESaIS3_EE14_M_fill_insertEN9__gnu_cxx17__normal_iteratorIPS3_S5_EEjRKS3_
                0x000000000807b442      0x216 ./objs/tilemap_xp.o
                0x000000000807b442                _ZNSt6vectorIS_IN7Tilemap8TileDataESaIS1_EESaIS3_EE14_M_fill_insertEN9__gnu_cxx17__normal_iteratorIPS3_S5_EEjRKS3_
 .text._ZNSt6vectorIS_IN7Tilemap8TileDataESaIS1_EESaIS3_EE6resizeEjS3_
                0x000000000807b658       0x72 ./objs/tilemap_xp.o
                0x000000000807b658                _ZNSt6vectorIS_IN7Tilemap8TileDataESaIS1_EESaIS3_EE6resizeEjS3_
 .text._ZSt10__fill_n_aIPN7Tilemap8TileDataEjS1_EN9__gnu_cxx11__enable_ifIXntsrSt11__is_scalarIT1_E7__valueET_E6__typeES8_T0_RKS6_
                0x000000000807b6ca       0x5c ./objs/tilemap_xp.o
                0x000000000807b6ca                _ZSt10__fill_n_aIPN7Tilemap8TileDataEjS1_EN9__gnu_cxx11__enable_ifIXntsrSt11__is_scalarIT1_E7__valueET_E6__typeES8_T0_RKS6_
 .text._ZNSt22__uninitialized_fill_nILb1EE20uninitialized_fill_nIPN7Tilemap8TileDataEjS3_EEvT_T0_RKT1_
                0x000000000807b726       0x45 ./objs/tilemap_xp.o
                0x000000000807b726                _ZNSt22__uninitialized_fill_nILb1EE20uninitialized_fill_nIPN7Tilemap8TileDataEjS3_EEvT_T0_RKT1_
 *fill*         0x000000000807b76b        0x1 90909090
 .text._ZNSt6vectorIN7Tilemap8TileDataESaIS1_EE14_M_fill_insertEN9__gnu_cxx17__normal_iteratorIPS1_S3_EEjRKS1_
                0x000000000807b76c      0x17d ./objs/tilemap_xp.o
                0x000000000807b76c                _ZNSt6vectorIN7Tilemap8TileDataESaIS1_EE14_M_fill_insertEN9__gnu_cxx17__normal_iteratorIPS1_S3_EEjRKS1_
 *fill*         0x000000000807b8e9        0x1 90909090
 .text._ZNSt6vectorIN7Tilemap8TileDataESaIS1_EE6resizeEjS1_
                0x000000000807b8ea       0x6c ./objs/tilemap_xp.o
                0x000000000807b8ea                _ZNSt6vectorIN7Tilemap8TileDataESaIS1_EE6resizeEjS1_
 .text._ZNSt12_Destroy_auxILb0EE9__destroyIN9__gnu_cxx17__normal_iteratorIPSt6vectorIN7Tilemap8TileDataESaIS6_EES4_IS8_SaIS8_EEEEEEvT_SD_
                0x000000000807b956       0x4d ./objs/tilemap_xp.o
                0x000000000807b956                _ZNSt12_Destroy_auxILb0EE9__destroyIN9__gnu_cxx17__normal_iteratorIPSt6vectorIN7Tilemap8TileDataESaIS6_EES4_IS8_SaIS8_EEEEEEvT_SD_
 .text._ZNSt11__copy_moveILb0ELb0ESt26random_access_iterator_tagE8__copy_mIPKSt6vectorIN7Tilemap8TileDataESaIS5_EEPS7_EET0_T_SC_SB_
                0x000000000807b9a3       0x6b ./objs/tilemap_xp.o
                0x000000000807b9a3                _ZNSt11__copy_moveILb0ELb0ESt26random_access_iterator_tagE8__copy_mIPKSt6vectorIN7Tilemap8TileDataESaIS5_EEPS7_EET0_T_SC_SB_
 .text._ZNSt11__copy_moveILb0ELb0ESt26random_access_iterator_tagE8__copy_mIPSt6vectorIN7Tilemap8TileDataESaIS5_EES8_EET0_T_SA_S9_
                0x000000000807ba0e       0x6b ./objs/tilemap_xp.o
                0x000000000807ba0e                _ZNSt11__copy_moveILb0ELb0ESt26random_access_iterator_tagE8__copy_mIPSt6vectorIN7Tilemap8TileDataESaIS5_EES8_EET0_T_SA_S9_
 *fill*         0x000000000807ba79        0x1 90909090
 .text._ZNSt6vectorIS_IN7Tilemap8TileDataESaIS1_EESaIS3_EEaSERKS5_
                0x000000000807ba7a      0x130 ./objs/tilemap_xp.o
                0x000000000807ba7a                _ZNSt6vectorIS_IN7Tilemap8TileDataESaIS1_EESaIS3_EEaSERKS5_
 .text._ZNSt20__copy_move_backwardILb0ELb0ESt26random_access_iterator_tagE13__copy_move_bIPSt6vectorIS3_IN7Tilemap8TileDataESaIS5_EESaIS7_EESA_EET0_T_SC_SB_
                0x000000000807bbaa       0x61 ./objs/tilemap_xp.o
                0x000000000807bbaa                _ZNSt20__copy_move_backwardILb0ELb0ESt26random_access_iterator_tagE13__copy_move_bIPSt6vectorIS3_IN7Tilemap8TileDataESaIS5_EESaIS7_EESA_EET0_T_SC_SB_
 .text._ZSt8__fill_aIPSt6vectorIS0_IN7Tilemap8TileDataESaIS2_EESaIS4_EES6_EN9__gnu_cxx11__enable_ifIXntsrSt11__is_scalarIT0_E7__valueEvE6__typeET_SF_RKSB_
                0x000000000807bc0b       0x50 ./objs/tilemap_xp.o
                0x000000000807bc0b                _ZSt8__fill_aIPSt6vectorIS0_IN7Tilemap8TileDataESaIS2_EESaIS4_EES6_EN9__gnu_cxx11__enable_ifIXntsrSt11__is_scalarIT0_E7__valueEvE6__typeET_SF_RKSB_
 *fill*         0x000000000807bc5b        0x1 90909090
 .text._ZNSt6vectorIS_IS_IN7Tilemap8TileDataESaIS1_EESaIS3_EESaIS5_EE14_M_fill_insertEN9__gnu_cxx17__normal_iteratorIPS5_S7_EEjRKS5_
                0x000000000807bc5c      0x235 ./objs/tilemap_xp.o
                0x000000000807bc5c                _ZNSt6vectorIS_IS_IN7Tilemap8TileDataESaIS1_EESaIS3_EESaIS5_EE14_M_fill_insertEN9__gnu_cxx17__normal_iteratorIPS5_S7_EEjRKS5_
 *fill*         0x000000000807be91        0x1 90909090
 .text._ZNSt6vectorIS_IS_IN7Tilemap8TileDataESaIS1_EESaIS3_EESaIS5_EE6resizeEjS5_
                0x000000000807be92       0x72 ./objs/tilemap_xp.o
                0x000000000807be92                _ZNSt6vectorIS_IS_IN7Tilemap8TileDataESaIS1_EESaIS3_EESaIS5_EE6resizeEjS5_
 .text          0x000000000807bf04       0x61 ./objs/time_qt.o
                0x000000000807bf04                _ZN4Time7GetTimeEv
                0x000000000807bf31                _ZN4Time7SleepMsEl
 *fill*         0x000000000807bf65        0x3 90909090
 .text          0x000000000807bf68      0x1ba ./objs/tone.o
                0x000000000807bf68                _ZN4ToneC1Ev
                0x000000000807bf68                _ZN4ToneC2Ev
                0x000000000807bfcc                _ZN4ToneC2Em
                0x000000000807bfcc                _ZN4ToneC1Em
                0x000000000807c062                _ZN4ToneD1Ev
                0x000000000807c062                _ZN4ToneD2Ev
                0x000000000807c08c                _ZN4Tone3SetEm
 *fill*         0x000000000807c122        0x2 90909090
 .text          0x000000000807c124      0xb61 ./objs/viewport.o
                0x000000000807c124                _ZN8Viewport14RefreshBitmapsEv
                0x000000000807c14e                _ZN8Viewport6UpdateEv
                0x000000000807c194                _ZN8Viewport5FlashEi
                0x000000000807c210                _ZN8Viewport5FlashE5Colori
                0x000000000807c25e                _ZN8Viewport7GetRectEv
                0x000000000807c28e                _ZN8Viewport7SetRectEm
                0x000000000807c2c0                _ZN8Viewport10GetVisibleEv
                0x000000000807c2f0                _ZN8Viewport10SetVisibleEb
                0x000000000807c322                _ZN8Viewport4GetZEv
                0x000000000807c352                _ZN8Viewport4SetZEi
                0x000000000807c39e                _ZN8Viewport5GetOxEv
                0x000000000807c3ce                _ZN8Viewport5SetOxEi
                0x000000000807c400                _ZN8Viewport5GetOyEv
                0x000000000807c430                _ZN8Viewport5SetOyEi
                0x000000000807c462                _ZN8Viewport8GetColorEv
                0x000000000807c492                _ZN8Viewport8SetColorEm
                0x000000000807c4c4                _ZN8Viewport7GetToneEv
                0x000000000807c4f4                _ZN8Viewport7SetToneEm
                0x000000000807c526                _ZN8Viewport15GetViewportRectEv
                0x000000000807c56c                _ZN8Viewport10RemoveZObjEm
                0x000000000807c5be                _ZN8ViewportD1Ev
                0x000000000807c5be                _ZN8ViewportD2Ev
                0x000000000807c6a2                _ZN8ViewportD0Ev
                0x000000000807c6e2                _ZN8ViewportC1Em
                0x000000000807c6e2                _ZN8ViewportC2Em
                0x000000000807c862                _ZN8Viewport10IsDisposedEm
                0x000000000807c8a8                _ZN8Viewport10UpdateZObjEml
                0x000000000807c936                _ZN8Viewport12RegisterZObjElmb
                0x000000000807c9b6                _ZN8Viewport12RegisterZObjElm
                0x000000000807ca3e                _ZN8Viewport4DrawEl
                0x000000000807cb48                _ZN8Viewport7DisposeEm
                0x000000000807cbcc                _ZN8Viewport3GetEm
                0x000000000807cc0c                _ZN8Viewport3NewEm
 *fill*         0x000000000807cc85        0x3 90909090
 .text          0x000000000807cc88     0x2509 ./objs/window_xp.o
                0x000000000807cc88                _ZN6WindowD2Ev
                0x000000000807cc88                _ZN6WindowD1Ev
                0x000000000807ccba                _ZN6Window14RefreshBitmapsEv
                0x000000000807cce4                _ZN6Window4DrawEl
                0x000000000807e666                _ZN6WindowD0Ev
                0x000000000807e6a0                _ZN6WindowC2Em
                0x000000000807e6a0                _ZN6WindowC1Em
                0x000000000807e7be                _ZN6Window4DrawElP6Bitmap
                0x000000000807e7e8                _ZN6Window6UpdateEv
                0x000000000807e850                _ZN6Window11GetViewportEv
                0x000000000807e880                _ZN6Window11SetViewportEm
                0x000000000807e918                _ZN6Window13GetWindowskinEv
                0x000000000807e948                _ZN6Window13SetWindowskinEm
                0x000000000807e97a                _ZN6Window11GetContentsEv
                0x000000000807e9aa                _ZN6Window11SetContentsEm
                0x000000000807e9dc                _ZN6Window10GetStretchEv
                0x000000000807ea0c                _ZN6Window10SetStretchEb
                0x000000000807ea3e                _ZN6Window13GetCursorRectEv
                0x000000000807ea6e                _ZN6Window13SetCursorRectEm
                0x000000000807eaa0                _ZN6Window9GetActiveEv
                0x000000000807ead0                _ZN6Window9SetActiveEb
                0x000000000807eb02                _ZN6Window10GetVisibleEv
                0x000000000807eb32                _ZN6Window10SetVisibleEb
                0x000000000807eb64                _ZN6Window8GetPauseEv
                0x000000000807eb94                _ZN6Window8SetPauseEb
                0x000000000807ebc6                _ZN6Window4GetXEv
                0x000000000807ebf6                _ZN6Window4SetXEi
                0x000000000807ec28                _ZN6Window4GetYEv
                0x000000000807ec58                _ZN6Window4SetYEi
                0x000000000807ec8a                _ZN6Window8GetWidthEv
                0x000000000807ecba                _ZN6Window8SetWidthEi
                0x000000000807ecec                _ZN6Window9GetHeightEv
                0x000000000807ed1c                _ZN6Window9SetHeightEi
                0x000000000807ed4e                _ZN6Window4GetZEv
                0x000000000807ed7e                _ZN6Window4SetZEi
                0x000000000807edee                _ZN6Window5GetOxEv
                0x000000000807ee1e                _ZN6Window5SetOxEi
                0x000000000807ee50                _ZN6Window5GetOyEv
                0x000000000807ee80                _ZN6Window5SetOyEi
                0x000000000807eeb2                _ZN6Window10GetOpacityEv
                0x000000000807eee2                _ZN6Window10SetOpacityEi
                0x000000000807ef14                _ZN6Window14GetBackOpacityEv
                0x000000000807ef44                _ZN6Window14SetBackOpacityEi
                0x000000000807ef76                _ZN6Window18GetContentsOpacityEv
                0x000000000807efa6                _ZN6Window18SetContentsOpacityEi
                0x000000000807efd8                _ZN6Window10IsDisposedEm
                0x000000000807f01e                _ZN6Window3GetEm
                0x000000000807f05e                _ZN6Window7DisposeEm
                0x000000000807f118                _ZN6Window3NewEm
 *fill*         0x000000000807f191        0x3 90909090
 .text          0x000000000807f194      0xe2e ./objs/windowui_qt.o
                0x000000000807f194                _ZN8WindowUi8updateGLEv
                0x000000000807f1be                _ZN8WindowUi12initializeGLEv
                0x000000000807f1e8                _ZN8WindowUi10wheelEventEP11QWheelEvent
                0x000000000807f21e                _ZN8WindowUi14mouseMoveEventEP11QMouseEvent
                0x000000000807f2e2                _ZN8WindowUi8resizeGLEii
                0x000000000807f31c                _ZN8WindowUi7DisposeEv
                0x000000000807f354                _ZN8WindowUi6QtK2IKEP9QKeyEvent
                0x000000000807f7ac                _ZN8WindowUi17mouseReleaseEventEP11QMouseEvent
                0x000000000807f902                _ZN8WindowUi15mousePressEventEP11QMouseEvent
                0x000000000807fa58                _ZN8WindowUiD2Ev
                0x000000000807fa58                _ZN8WindowUiD1Ev
                0x000000000807fab3                _ZThn8_N8WindowUiD1Ev
                0x000000000807faba                _ZN8WindowUiD0Ev
                0x000000000807fafa                _ZThn8_N8WindowUiD0Ev
                0x000000000807fb02                _ZN8WindowUi8GetEventER5Event
                0x000000000807fb5c                _ZN8WindowUiC2EllRKSsbb
                0x000000000807fb5c                _ZN8WindowUiC1EllRKSsbb
                0x000000000807fd4e                _ZN8WindowUi5eventEP6QEvent
                0x000000000807fdc6                _ZN8WindowUi13focusOutEventEP11QFocusEvent
                0x000000000807fe32                _ZN8WindowUi12focusInEventEP11QFocusEvent
                0x000000000807fe9e                _ZN8WindowUi15keyReleaseEventEP9QKeyEvent
                0x000000000807ff30                _ZN8WindowUi13keyPressEventEP9QKeyEvent
 .text._ZNK6QFlagsIN2Qt16KeyboardModifierEEanES1_
                0x000000000807ffc2       0x3f ./objs/windowui_qt.o
                0x000000000807ffc2                _ZNK6QFlagsIN2Qt16KeyboardModifierEEanES1_
 *fill*         0x0000000008080001        0x1 90909090
 .text._ZNK6QFlagsIN2Qt11MouseButtonEEanES1_
                0x0000000008080002       0x3f ./objs/windowui_qt.o
                0x0000000008080002                _ZNK6QFlagsIN2Qt11MouseButtonEEanES1_
 *fill*         0x0000000008080041        0x1 90909090
 .text._ZNSt11_Deque_baseI5EventSaIS0_EED2Ev
                0x0000000008080042       0x76 ./objs/windowui_qt.o
                0x0000000008080042                _ZNSt11_Deque_baseI5EventSaIS0_EED1Ev
                0x0000000008080042                _ZNSt11_Deque_baseI5EventSaIS0_EED2Ev
 .text._ZNSt11_Deque_baseI5EventSaIS0_EE17_M_initialize_mapEj
                0x00000000080800b8      0x13a ./objs/windowui_qt.o
                0x00000000080800b8                _ZNSt11_Deque_baseI5EventSaIS0_EE17_M_initialize_mapEj
 .text._ZNSt11_Deque_baseI5EventSaIS0_EEC2Ev
                0x00000000080801f2       0x7d ./objs/windowui_qt.o
                0x00000000080801f2                _ZNSt11_Deque_baseI5EventSaIS0_EEC2Ev
                0x00000000080801f2                _ZNSt11_Deque_baseI5EventSaIS0_EEC1Ev
 *fill*         0x000000000808026f        0x1 90909090
 .text._ZNSt5dequeI5EventSaIS0_EE16_M_pop_front_auxEv
                0x0000000008080270       0x56 ./objs/windowui_qt.o
                0x0000000008080270                _ZNSt5dequeI5EventSaIS0_EE16_M_pop_front_auxEv
 .text._ZNSt5dequeI5EventSaIS0_EE9pop_frontEv
                0x00000000080802c6       0x57 ./objs/windowui_qt.o
                0x00000000080802c6                _ZNSt5dequeI5EventSaIS0_EE9pop_frontEv
 .text._ZStmiI5EventRS0_PS0_ENSt15_Deque_iteratorIT_T0_T1_E15difference_typeERKS7_SA_
                0x000000000808031d       0x5c ./objs/windowui_qt.o
                0x000000000808031d                _ZStmiI5EventRS0_PS0_ENSt15_Deque_iteratorIT_T0_T1_E15difference_typeERKS7_SA_
 *fill*         0x0000000008080379        0x1 90909090
 .text._ZNKSt5dequeI5EventSaIS0_EE4sizeEv
                0x000000000808037a       0x3d ./objs/windowui_qt.o
                0x000000000808037a                _ZNKSt5dequeI5EventSaIS0_EE4sizeEv
 *fill*         0x00000000080803b7        0x1 90909090
 .text._ZNSt15_Deque_iteratorI5EventRS0_PS0_EppEv
                0x00000000080803b8       0x53 ./objs/windowui_qt.o
                0x00000000080803b8                _ZNSt15_Deque_iteratorI5EventRS0_PS0_EppEv
 *fill*         0x000000000808040b        0x1 90909090
 .text._ZNSt15_Deque_iteratorI5EventRKS0_PS1_EppEv
                0x000000000808040c       0x53 ./objs/windowui_qt.o
                0x000000000808040c                _ZNSt15_Deque_iteratorI5EventRKS0_PS1_EppEv
 .text._ZSt10_ConstructI5EventS0_EvPT_RKT0_
                0x000000000808045f       0x44 ./objs/windowui_qt.o
                0x000000000808045f                _ZSt10_ConstructI5EventS0_EvPT_RKT0_
 *fill*         0x00000000080804a3        0x1 90909090
 .text._ZNSt5dequeI5EventSaIS0_EEC2ERKS2_
                0x00000000080804a4      0x106 ./objs/windowui_qt.o
                0x00000000080804a4                _ZNSt5dequeI5EventSaIS0_EEC2ERKS2_
                0x00000000080804a4                _ZNSt5dequeI5EventSaIS0_EEC1ERKS2_
 .text._ZNSt11__copy_moveILb0ELb1ESt26random_access_iterator_tagE8__copy_mIP5EventEEPT_PKS5_S8_S6_
                0x00000000080805aa       0x57 ./objs/windowui_qt.o
                0x00000000080805aa                _ZNSt11__copy_moveILb0ELb1ESt26random_access_iterator_tagE8__copy_mIP5EventEEPT_PKS5_S8_S6_
 .text._ZNSt20__copy_move_backwardILb0ELb1ESt26random_access_iterator_tagE13__copy_move_bIP5EventEEPT_PKS5_S8_S6_
                0x0000000008080601       0x5e ./objs/windowui_qt.o
                0x0000000008080601                _ZNSt20__copy_move_backwardILb0ELb1ESt26random_access_iterator_tagE13__copy_move_bIP5EventEEPT_PKS5_S8_S6_
 *fill*         0x000000000808065f        0x1 90909090
 .text._ZNSt5dequeI5EventSaIS0_EE17_M_reallocate_mapEjb
                0x0000000008080660      0x123 ./objs/windowui_qt.o
                0x0000000008080660                _ZNSt5dequeI5EventSaIS0_EE17_M_reallocate_mapEjb
 *fill*         0x0000000008080783        0x1 90909090
 .text._ZNSt5dequeI5EventSaIS0_EE22_M_reserve_map_at_backEj
                0x0000000008080784       0x54 ./objs/windowui_qt.o
                0x0000000008080784                _ZNSt5dequeI5EventSaIS0_EE22_M_reserve_map_at_backEj
 .text._ZNSt5dequeI5EventSaIS0_EE16_M_push_back_auxERKS0_
                0x00000000080807d8       0x7b ./objs/windowui_qt.o
                0x00000000080807d8                _ZNSt5dequeI5EventSaIS0_EE16_M_push_back_auxERKS0_
 *fill*         0x0000000008080853        0x1 90909090
 .text._ZNSt5dequeI5EventSaIS0_EE9push_backERKS0_
                0x0000000008080854       0x6e ./objs/windowui_qt.o
                0x0000000008080854                _ZNSt5dequeI5EventSaIS0_EE9push_backERKS0_
 *fill*         0x00000000080808c2        0x2 90909090
 .text          0x00000000080808c4      0x127 ./objs/zobj.o
                0x00000000080808c4                _ZN4ZObjC2Elmm
                0x00000000080808c4                _ZN4ZObjC1Elmm
                0x0000000008080902                _ZN4ZObjD2Ev
                0x0000000008080902                _ZN4ZObjD1Ev
                0x000000000808092c                _ZN4ZObj4SetZEl
                0x000000000808095e                _ZN4ZObj4GetZEv
                0x000000000808098c                _ZN4ZObj11GetCreationEv
                0x00000000080809bc                _ZN4ZObj5GetIdEv
 *fill*         0x00000000080809eb        0x5 90909090
 .text          0x00000000080809f0     0x298e src/SOIL/projects/makefile/obj/SOIL.o
                0x00000000080809f0                check_for_GL_errors
                0x0000000008080a00                SOIL_load_image
                0x0000000008080a60                SOIL_load_image_from_memory
                0x0000000008080ac0                SOIL_save_image
                0x0000000008080bb0                SOIL_save_screenshot
                0x0000000008080d30                SOIL_free_image_data
                0x0000000008080d40                SOIL_last_result
                0x0000000008080d50                query_NPOT_capability
                0x0000000008080db0                query_tex_rectangle_capability
                0x0000000008080e50                query_cubemap_capability
                0x0000000008080ed0                query_DXT_capability
                0x0000000008080f40                SOIL_direct_load_DDS_from_memory
                0x00000000080817d0                SOIL_direct_load_DDS
                0x0000000008081910                SOIL_internal_create_OGL_texture
                0x0000000008082270                SOIL_create_OGL_texture
                0x00000000080822c0                SOIL_create_OGL_single_cubemap
                0x0000000008082520                SOIL_load_OGL_single_cubemap_from_memory
                0x00000000080826c0                SOIL_load_OGL_single_cubemap
                0x0000000008082850                SOIL_load_OGL_cubemap_from_memory
                0x0000000008082c70                SOIL_load_OGL_cubemap
                0x0000000008083070                SOIL_load_OGL_texture_from_memory
                0x0000000008083170                SOIL_load_OGL_HDR_texture
                0x00000000080832a0                SOIL_load_OGL_texture
 *fill*         0x000000000808337e        0x2 90909090
 .text          0x0000000008083380     0x11c5 src/SOIL/projects/makefile/obj/image_DXT.o
                0x0000000008083380                convert_bit_range
                0x00000000080833c0                rgb_to_565
                0x0000000008083420                rgb_888_from_565
                0x0000000008083490                compute_color_line_STDEV
                0x00000000080836b0                LSE_master_colors_max_min
                0x0000000008083900                compress_DDS_color_block
                0x0000000008083ac0                convert_image_to_DXT1
                0x0000000008083de0                compress_DDS_alpha_block
                0x0000000008083f10                convert_image_to_DXT5
                0x0000000008084320                save_image_as_DDS
 *fill*         0x0000000008084545        0xb 90909090
 .text          0x0000000008084550      0xc9e src/SOIL/projects/makefile/obj/image_helper.o
                0x0000000008084550                up_scale_image
                0x0000000008084730                mipmap_image
                0x0000000008084940                scale_image_RGB_to_NTSC_safe
                0x0000000008084a60                clamp_byte
                0x0000000008084a80                convert_RGB_to_YCoCg
                0x0000000008084be0                convert_YCoCg_to_RGB
                0x0000000008084d70                find_max_RGBE
                0x0000000008084df0                RGBE_to_RGBdivA
                0x0000000008084fd0                RGBE_to_RGBdivA2
 *fill*         0x00000000080851ee        0x2 90909090
 .text          0x00000000080851f0     0x9541 src/SOIL/projects/makefile/obj/stb_image_aug.o
                0x000000000808afa0                stbi_failure_reason
                0x000000000808afb0                stbi_image_free
                0x000000000808afc0                stbi_register_loader
                0x000000000808b010                stbi_hdr_to_ldr_gamma
                0x000000000808b020                stbi_hdr_to_ldr_scale
                0x000000000808b030                stbi_ldr_to_hdr_gamma
                0x000000000808b040                stbi_ldr_to_hdr_scale
                0x000000000808b050                stbi_jpeg_load_from_file
                0x000000000808b090                stbi_jpeg_load
                0x000000000808b0f0                stbi_jpeg_load_from_memory
                0x000000000808b140                stbi_jpeg_test_file
                0x000000000808b1a0                stbi_jpeg_test_memory
                0x000000000808b1e0                stbi_zlib_decode_malloc_guesssize
                0x000000000808b290                stbi_zlib_decode_malloc
                0x000000000808c760                stbi_zlib_decode_buffer
                0x000000000808c7d0                stbi_zlib_decode_noheader_malloc
                0x000000000808c880                stbi_zlib_decode_noheader_buffer
                0x000000000808c8f0                stbi_png_load_from_file
                0x000000000808c920                stbi_png_load
                0x000000000808c980                stbi_png_load_from_memory
                0x000000000808c9c0                stbi_png_test_file
                0x000000000808ca20                stbi_png_test_memory
                0x000000000808ca50                stbi_bmp_test_file
                0x000000000808caa0                stbi_bmp_test_memory
                0x000000000808cad0                stbi_bmp_load_from_file
                0x000000000808cb00                stbi_bmp_load
                0x000000000808cb60                stbi_bmp_load_from_memory
                0x000000000808cba0                stbi_tga_test_file
                0x000000000808cbf0                stbi_tga_test_memory
                0x000000000808cc20                stbi_tga_load_from_file
                0x000000000808cc50                stbi_tga_load
                0x000000000808ccb0                stbi_tga_load_from_memory
                0x000000000808ccf0                stbi_psd_test_file
                0x000000000808cd50                stbi_psd_test_memory
                0x000000000808cd80                stbi_psd_load_from_file
                0x000000000808cdb0                stbi_psd_load
                0x000000000808ce10                stbi_psd_load_from_memory
                0x000000000808ce50                stbi_hdr_test_memory
                0x000000000808ce80                stbi_is_hdr_from_memory
                0x000000000808ce90                stbi_hdr_test_file
                0x000000000808cee0                stbi_is_hdr_from_file
                0x000000000808cef0                stbi_is_hdr
                0x000000000808cf40                stbi_hdr_load_from_file
                0x000000000808cf70                stbi_hdr_load_rgbe_file
                0x000000000808cfa0                stbi_hdr_load_rgbe
                0x000000000808d010                stbi_hdr_load_from_memory
                0x000000000808d050                stbi_hdr_load_rgbe_memory
                0x000000000808d080                stbi_write_bmp
                0x000000000808d170                stbi_write_tga
                0x000000000808d230                stbi_dds_test_file
                0x000000000808d280                stbi_dds_test_memory
                0x000000000808d2b0                stbi_convert_bit_range
                0x000000000808d2f0                stbi_rgb_888_from_565
                0x000000000808d360                stbi_decode_DXT1_block
                0x000000000808d540                stbi_decode_DXT23_alpha_block
                0x000000000808d590                stbi_decode_DXT45_alpha_block
                0x000000000808d730                stbi_decode_DXT_color_block
                0x000000000808dea0                stbi_dds_load_from_file
                0x000000000808ded0                stbi_load_from_file
                0x000000000808e150                stbi_loadf_from_file
                0x000000000808e210                stbi_loadf
                0x000000000808e280                stbi_load
                0x000000000808e2f0                stbi_dds_load
                0x000000000808e350                stbi_dds_load_from_memory
                0x000000000808e390                stbi_load_from_memory
                0x000000000808e660                stbi_loadf_from_memory
 *fill*         0x000000000808e731        0x3 90909090
 .text          0x000000000808e734      0x8e5 ./objs/ConvertUTF.o
                0x000000000808e7ff                ConvertUTF32toUTF16
                0x000000000808e8f9                ConvertUTF16toUTF32
                0x000000000808e9dd                ConvertUTF16toUTF8
                0x000000000808eb5a                isLegalUTF8Sequence
                0x000000000808ebb4                ConvertUTF8toUTF16
                0x000000000808ed46                ConvertUTF32toUTF8
                0x000000000808ee8e                ConvertUTF8toUTF32
 *fill*         0x000000000808f019        0x7 90909090
 .text          0x000000000808f020       0x6a /usr/lib/libc_nonshared.a(elf-init.oS)
                0x000000000808f020                __libc_csu_fini
                0x000000000808f030                __libc_csu_init
 .text.__i686.get_pc_thunk.bx
                0x000000000808f08a        0x4 /usr/lib/libc_nonshared.a(elf-init.oS)
                0x000000000808f08a                __i686.get_pc_thunk.bx
 *fill*         0x000000000808f08e        0x2 90909090
 .text          0x000000000808f090       0x2a /usr/local/lib/gcc/i686-pc-linux-gnu/4.5.0/crtend.o
 *fill*         0x000000000808f0ba        0x2 90909090
 .text          0x000000000808f0bc        0x0 /usr/lib/crtn.o
 *(.gnu.warning)

.fini           0x000000000808f0bc       0x1c
 *(.fini)
 .fini          0x000000000808f0bc       0x13 /usr/lib/crti.o
                0x000000000808f0bc                _fini
 .fini          0x000000000808f0cf        0x5 /usr/local/lib/gcc/i686-pc-linux-gnu/4.5.0/crtbegin.o
 .fini          0x000000000808f0d4        0x4 /usr/lib/crtn.o
                0x000000000808f0d8                PROVIDE (__etext, .)
                0x000000000808f0d8                PROVIDE (_etext, .)
                0x000000000808f0d8                PROVIDE (etext, .)

.rodata         0x000000000808f0e0     0x379b
 *(.rodata .rodata.* .gnu.linkonce.r.*)
 .rodata        0x000000000808f0e0        0x4 /usr/lib/crt1.o
                0x000000000808f0e0                _fp_hw
 .rodata.cst4   0x000000000808f0e4        0x4 /usr/lib/crt1.o
                0x000000000808f0e4                _IO_stdin_used
 .rodata.str1.1
                0x000000000808f0e8       0x89 ./objs/argss_audio.o
 .rodata.str1.1
                0x000000000808f171       0xec ./objs/argss_bitmap.o
                                        0x13b (size before relaxing)
 .rodata.str1.1
                0x000000000808f25d       0x67 ./objs/argss_color.o
                                         0xb5 (size before relaxing)
 .rodata.cst4   0x000000000808f2c4        0x4 ./objs/argss_color.o
 .rodata.str1.1
                0x000000000808f2c8        0xb ./objs/argss_error.o
 .rodata.str1.1
                0x000000000808f2d3       0xf3 ./objs/argss_font.o
                                        0x1c2 (size before relaxing)
 .rodata.cst4   0x0000000000000000        0x4 ./objs/argss_font.o
 .rodata.str1.1
                0x000000000808f3c6       0xb4 ./objs/argss_graphics.o
                                         0xf2 (size before relaxing)
 .rodata.str1.1
                0x000000000808f47a       0x71 ./objs/argss_input.o
                                         0x9d (size before relaxing)
 .rodata.str1.1
                0x000000000808f4eb      0x259 ./objs/argss_keys.o
                                        0x2b6 (size before relaxing)
 .rodata.str1.1
                0x000000000808f744       0x56 ./objs/argss_output.o
                                         0x5b (size before relaxing)
 .rodata.str1.1
                0x000000000808f79a       0xb3 ./objs/argss_plane.o
                                        0x158 (size before relaxing)
 .rodata.str1.1
                0x000000000808f84d       0x43 ./objs/argss_rect.o
                                         0xae (size before relaxing)
 .rodata.str1.1
                0x000000000808f890      0xb90 ./objs/argss_rpg.o
                                       0x15e4 (size before relaxing)
 .rodata.cst4   0x0000000000000000        0x4 ./objs/argss_rpg.o
 .rodata.str1.1
                0x0000000008090420      0x173 ./objs/argss_rpg_cache.o
                                        0x1c0 (size before relaxing)
 *fill*         0x0000000008090593        0x1 00
 .rodata.cst4   0x0000000008090594        0x4 ./objs/argss_rpg_cache.o
 .rodata.str1.1
                0x0000000008090598      0x247 ./objs/argss_rpg_sprite.o
                                        0x428 (size before relaxing)
 *fill*         0x00000000080907df        0x1 00
 .rodata        0x00000000080907e0       0x30 ./objs/argss_rpg_sprite.o
 .rodata.cst4   0x0000000008090810        0x4 ./objs/argss_rpg_sprite.o
                                          0x8 (size before relaxing)
 .rodata.str1.1
                0x0000000008090814       0x49 ./objs/argss_rpg_weather.o
                                         0xbc (size before relaxing)
 .rodata.cst4   0x0000000000000000        0x4 ./objs/argss_rpg_weather.o
 .rodata.str1.1
                0x000000000809085d      0x167 ./objs/argss_ruby.o
                                        0x17a (size before relaxing)
 .rodata.str1.1
                0x00000000080909c4       0x67 ./objs/argss_sprite.o
                                        0x224 (size before relaxing)
 .rodata.str1.1
                0x0000000008090a2b       0x3b ./objs/argss_table.o
                                         0xa5 (size before relaxing)
 .rodata.str1.1
                0x0000000008090a66       0x73 ./objs/argss_tilemap_xp.o
                                        0x146 (size before relaxing)
 .rodata.str1.1
                0x0000000008090ad9       0x11 ./objs/argss_tilemapautotiles_xp.o
                                         0x2e (size before relaxing)
 .rodata.str1.1
                0x0000000008090aea       0x11 ./objs/argss_tone.o
                                         0xb1 (size before relaxing)
 *fill*         0x0000000008090afb        0x1 00
 .rodata.cst4   0x0000000008090afc        0x4 ./objs/argss_tone.o
                                          0x8 (size before relaxing)
 .rodata.str1.1
                0x0000000008090b00       0x26 ./objs/argss_viewport.o
                                         0xdd (size before relaxing)
 .rodata.str1.1
                0x0000000008090b26       0xd2 ./objs/argss_window_xp.o
                                        0x21e (size before relaxing)
 .rodata.str1.1
                0x0000000008090bf8      0x117 ./objs/audio.o
                                        0x11b (size before relaxing)
 .rodata.str1.1
                0x0000000008090d0f       0x77 ./objs/bitmap.o
                                         0xc5 (size before relaxing)
 *fill*         0x0000000008090d86        0x2 00
 .rodata.cst4   0x0000000008090d88        0x4 ./objs/bitmap.o
                                          0x8 (size before relaxing)
 *fill*         0x0000000008090d8c        0x4 00
 .rodata.cst8   0x0000000008090d90       0x20 ./objs/bitmap.o
 .rodata.str1.1
                0x0000000000000000       0x19 ./objs/color.o
 .rodata.str1.1
                0x0000000008090db0       0x39 ./objs/filefinder_qt.o
                                         0x3a (size before relaxing)
 .rodata.str1.1
                0x0000000008090de9        0xc ./objs/graphics.o
 *fill*         0x0000000008090df5        0x3 00
 .rodata.cst4   0x0000000008090df8        0x4 ./objs/graphics.o
                                          0x8 (size before relaxing)
 .rodata.cst4   0x0000000008090dfc       0x10 ./objs/hslrgb.o
                                         0x18 (size before relaxing)
 *fill*         0x0000000008090e0c        0x4 00
 .rodata.cst8   0x0000000008090e10       0x20 ./objs/hslrgb.o
 .rodata.str1.1
                0x0000000008090e30       0x33 ./objs/input.o
                                         0x4a (size before relaxing)
 .rodata.str1.1
                0x0000000000000000       0x16 ./objs/inputbuttons_qt.o
 *fill*         0x0000000008090e63        0x5 00
 .rodata._ZTV10MainThread
                0x0000000008090e68       0x3c ./objs/main.o
                0x0000000008090e68                _ZTV10MainThread
 .rodata._ZTI10MainThread
                0x0000000008090ea4        0xc ./objs/main.o
                0x0000000008090ea4                _ZTI10MainThread
 .rodata._ZTS10MainThread
                0x0000000008090eb0        0xd ./objs/main.o
                0x0000000008090eb0                _ZTS10MainThread
 .rodata.str1.1
                0x0000000008090ebd       0x30 ./objs/output.o
                                         0x31 (size before relaxing)
 *fill*         0x0000000008090eed        0x3 00
 .rodata        0x0000000008090ef0      0x118 ./objs/output.o
 .rodata.str1.1
                0x0000000000000000       0x17 ./objs/plane.o
 .rodata._ZTV5Plane
                0x0000000008091008       0x18 ./objs/plane.o
                0x0000000008091008                _ZTV5Plane
 .rodata._ZTS5Plane
                0x0000000008091020        0x7 ./objs/plane.o
                0x0000000008091020                _ZTS5Plane
 *fill*         0x0000000008091027        0x1 00
 .rodata._ZTI5Plane
                0x0000000008091028        0xc ./objs/plane.o
                0x0000000008091028                _ZTI5Plane
 *fill*         0x0000000008091034        0x4 00
 .rodata._ZTV8Drawable
                0x0000000008091038       0x18 ./objs/plane.o
                0x0000000008091038                _ZTV8Drawable
 .rodata._ZTI8Drawable
                0x0000000008091050        0x8 ./objs/plane.o
                0x0000000008091050                _ZTI8Drawable
 .rodata._ZTS8Drawable
                0x0000000008091058        0xa ./objs/plane.o
                0x0000000008091058                _ZTS8Drawable
 .rodata.cst4   0x0000000000000000        0x4 ./objs/plane.o
 .rodata.str1.1
                0x0000000000000000       0x15 ./objs/rect.o
 .rodata.str1.1
                0x0000000008091062      0x145 ./objs/socket.o
 .rodata.str1.1
                0x0000000000000000       0x30 ./objs/sprite.o
 *fill*         0x00000000080911a7        0x1 00
 .rodata._ZTV6Sprite
                0x00000000080911a8       0x18 ./objs/sprite.o
                0x00000000080911a8                _ZTV6Sprite
 .rodata._ZTS6Sprite
                0x00000000080911c0        0x8 ./objs/sprite.o
                0x00000000080911c0                _ZTS6Sprite
 .rodata._ZTI6Sprite
                0x00000000080911c8        0xc ./objs/sprite.o
                0x00000000080911c8                _ZTI6Sprite
 .rodata.cst4   0x0000000000000000        0x8 ./objs/sprite.o
 .rodata        0x00000000080911d4        0x2 ./objs/system.o
 .rodata.str1.1
                0x00000000080911d6       0x75 ./objs/system.o
                                         0x79 (size before relaxing)
 .rodata._ZZN15CSimpleIniTemplIc16SI_GenericNoCaseIcE11SI_ConvertAIcEE4LoadEPKcjE5empty
                0x000000000809124b        0x1 ./objs/system.o
                0x000000000809124b                _ZZN15CSimpleIniTemplIc16SI_GenericNoCaseIcE11SI_ConvertAIcEE4LoadEPKcjE5empty
 .rodata.str1.1
                0x000000000809124c       0xdc ./objs/text.o
                                         0xf2 (size before relaxing)
 .rodata.cst4   0x0000000000000000        0x4 ./objs/text.o
 .rodata.str1.1
                0x0000000000000000       0x51 ./objs/tilemap_xp.o
 .rodata._ZTV7Tilemap
                0x0000000008091328       0x18 ./objs/tilemap_xp.o
                0x0000000008091328                _ZTV7Tilemap
 .rodata._ZTS7Tilemap
                0x0000000008091340        0x9 ./objs/tilemap_xp.o
                0x0000000008091340                _ZTS7Tilemap
 *fill*         0x0000000008091349        0x3 00
 .rodata._ZTI7Tilemap
                0x000000000809134c        0xc ./objs/tilemap_xp.o
                0x000000000809134c                _ZTI7Tilemap
 .rodata        0x0000000008091358      0x300 ./objs/tilemap_xp.o
 .rodata.cst4   0x0000000008091658        0x4 ./objs/tilemap_xp.o
                                          0x8 (size before relaxing)
 .rodata.str1.1
                0x0000000000000000       0x18 ./objs/tone.o
 .rodata.str1.1
                0x0000000000000000       0x13 ./objs/viewport.o
 *fill*         0x000000000809165c        0x4 00
 .rodata._ZTV8Viewport
                0x0000000008091660       0x18 ./objs/viewport.o
                0x0000000008091660                _ZTV8Viewport
 .rodata._ZTS8Viewport
                0x0000000008091678        0xa ./objs/viewport.o
                0x0000000008091678                _ZTS8Viewport
 *fill*         0x0000000008091682        0x2 00
 .rodata._ZTI8Viewport
                0x0000000008091684        0xc ./objs/viewport.o
                0x0000000008091684                _ZTI8Viewport
 .rodata.str1.1
                0x0000000000000000       0x17 ./objs/window_xp.o
 .rodata._ZTV6Window
                0x0000000008091690       0x18 ./objs/window_xp.o
                0x0000000008091690                _ZTV6Window
 .rodata._ZTS6Window
                0x00000000080916a8        0x8 ./objs/window_xp.o
                0x00000000080916a8                _ZTS6Window
 .rodata._ZTI6Window
                0x00000000080916b0        0xc ./objs/window_xp.o
                0x00000000080916b0                _ZTI6Window
 .rodata.cst4   0x00000000080916bc       0x60 ./objs/window_xp.o
                                         0x6c (size before relaxing)
 .rodata        0x000000000809171c       0x28 ./objs/windowui_qt.o
 .rodata.str1.1
                0x0000000000000000        0xd ./objs/windowui_qt.o
 *fill*         0x0000000008091744        0x4 00
 .rodata._ZTV8WindowUi
                0x0000000008091748      0x124 ./objs/windowui_qt.o
                0x0000000008091748                _ZTV8WindowUi
 .rodata._ZTS8WindowUi
                0x000000000809186c        0xa ./objs/windowui_qt.o
                0x000000000809186c                _ZTS8WindowUi
 *fill*         0x0000000008091876        0x2 00
 .rodata._ZTI8WindowUi
                0x0000000008091878        0xc ./objs/windowui_qt.o
                0x0000000008091878                _ZTI8WindowUi
 .rodata.str1.1
                0x0000000008091884      0x201 src/SOIL/projects/makefile/obj/SOIL.o
                                        0x204 (size before relaxing)
 *fill*         0x0000000008091a85        0x3 00
 .rodata.str1.4
                0x0000000008091a88      0x2f6 src/SOIL/projects/makefile/obj/SOIL.o
 *fill*         0x0000000008091d7e        0x2 00
 .rodata        0x0000000008091d80       0x90 src/SOIL/projects/makefile/obj/SOIL.o
 .rodata.str1.1
                0x0000000000000000        0x3 src/SOIL/projects/makefile/obj/image_DXT.o
 .rodata.cst4   0x0000000008091e10       0x18 src/SOIL/projects/makefile/obj/image_DXT.o
                                         0x24 (size before relaxing)
 .rodata.cst4   0x0000000008091e28       0x10 src/SOIL/projects/makefile/obj/image_helper.o
                                         0x18 (size before relaxing)
 .rodata.str1.1
                0x0000000008091e38      0x25b src/SOIL/projects/makefile/obj/stb_image_aug.o
                                        0x263 (size before relaxing)
 *fill*         0x0000000008092093        0x1 00
 .rodata.str1.4
                0x0000000008092094      0x248 src/SOIL/projects/makefile/obj/stb_image_aug.o
 *fill*         0x00000000080922dc        0x4 00
 .rodata        0x00000000080922e0      0x44b src/SOIL/projects/makefile/obj/stb_image_aug.o
 .rodata.cst4   0x0000000000000000        0xc src/SOIL/projects/makefile/obj/stb_image_aug.o
 *fill*         0x000000000809272b        0x1 00
 .rodata        0x000000000809272c      0x14f ./objs/ConvertUTF.o

.rodata1
 *(.rodata1)

.eh_frame_hdr   0x000000000809287c     0x2584
 *(.eh_frame_hdr)
 .eh_frame_hdr  0x000000000809287c     0x2584 ./objs/argss.o

.eh_frame       0x0000000008094e00     0xd628
 *(.eh_frame)
 .eh_frame      0x0000000008094e00       0x58 ./objs/argss.o
 .eh_frame      0x0000000008094e58      0x258 ./objs/argss_audio.o
                                        0x270 (size before relaxing)
 .eh_frame      0x00000000080950b0      0x640 ./objs/argss_bitmap.o
                                        0x678 (size before relaxing)
 .eh_frame      0x00000000080956f0      0x334 ./objs/argss_color.o
                                        0x34c (size before relaxing)
 .eh_frame      0x0000000008095a24       0x28 ./objs/argss_error.o
                                         0x40 (size before relaxing)
 .eh_frame      0x0000000008095a4c      0x4b4 ./objs/argss_font.o
                                        0x4cc (size before relaxing)
 .eh_frame      0x0000000008095f00      0x378 ./objs/argss_graphics.o
                                        0x3b0 (size before relaxing)
 .eh_frame      0x0000000008096278      0x1e4 ./objs/argss_input.o
                                        0x1fc (size before relaxing)
 .eh_frame      0x000000000809645c       0x2c ./objs/argss_keys.o
                                         0x44 (size before relaxing)
 .eh_frame      0x0000000008096488      0x1c0 ./objs/argss_output.o
                                        0x1f8 (size before relaxing)
 .eh_frame      0x0000000008096648      0x5a4 ./objs/argss_plane.o
                                        0x5bc (size before relaxing)
 .eh_frame      0x0000000008096bec      0x34c ./objs/argss_rect.o
                                        0x364 (size before relaxing)
 .eh_frame      0x0000000008096f38      0x6f4 ./objs/argss_rpg.o
                                        0x70c (size before relaxing)
 .eh_frame      0x000000000809762c      0x3cc ./objs/argss_rpg_cache.o
                                        0x3e4 (size before relaxing)
 .eh_frame      0x00000000080979f8      0x60c ./objs/argss_rpg_sprite.o
                                        0x624 (size before relaxing)
 .eh_frame      0x0000000008098004      0x21c ./objs/argss_rpg_weather.o
                                        0x234 (size before relaxing)
 .eh_frame      0x0000000008098220      0x350 ./objs/argss_ruby.o
                                        0x388 (size before relaxing)
 .eh_frame      0x0000000008098570      0x9d4 ./objs/argss_sprite.o
                                        0xa0c (size before relaxing)
 .eh_frame      0x0000000008098f44      0x2d4 ./objs/argss_table.o
                                        0x2ec (size before relaxing)
 .eh_frame      0x0000000008099218      0x46c ./objs/argss_tilemap_xp.o
                                        0x484 (size before relaxing)
 .eh_frame      0x0000000008099684      0x10c ./objs/argss_tilemapautotiles_xp.o
                                        0x124 (size before relaxing)
 .eh_frame      0x0000000008099790      0x300 ./objs/argss_tone.o
                                        0x318 (size before relaxing)
 .eh_frame      0x0000000008099a90      0x434 ./objs/argss_viewport.o
                                        0x46c (size before relaxing)
 .eh_frame      0x0000000008099ec4      0x888 ./objs/argss_window_xp.o
                                        0x8a0 (size before relaxing)
 .eh_frame      0x000000000809a74c      0x51c ./objs/audio.o
                                        0x57c (size before relaxing)
 .eh_frame      0x000000000809ac68      0xca4 ./objs/bitmap.o
                                        0xd04 (size before relaxing)
 .eh_frame      0x000000000809b90c       0xec ./objs/buffer.o
                                        0x104 (size before relaxing)
 .eh_frame      0x000000000809b9f8      0x140 ./objs/color.o
                                        0x158 (size before relaxing)
 .eh_frame      0x000000000809bb38       0xf4 ./objs/console_qt.o
                                        0x10c (size before relaxing)
 .eh_frame      0x000000000809bc2c      0x1e8 ./objs/filefinder_qt.o
                                        0x248 (size before relaxing)
 .eh_frame      0x000000000809be14      0x8f8 ./objs/graphics.o
                                        0x930 (size before relaxing)
 .eh_frame      0x000000000809c70c       0xb8 ./objs/hslrgb.o
                                         0xf0 (size before relaxing)
 .eh_frame      0x000000000809c7c4      0xdd0 ./objs/input.o
                                        0xe08 (size before relaxing)
 .eh_frame      0x000000000809d594      0x11c ./objs/inputbuttons_qt.o
                                        0x3c8 (size before relaxing)
 .eh_frame      0x000000000809d6b0       0x50 ./objs/inputkeys.o
                                         0x68 (size before relaxing)
 .eh_frame      0x000000000809d700       0xe0 ./objs/main.o
                                        0x118 (size before relaxing)
 .eh_frame      0x000000000809d7e0       0xb4 ./objs/msgbox_qt.o
                                        0x170 (size before relaxing)
 .eh_frame      0x000000000809d894      0x294 ./objs/output.o
                                        0x2cc (size before relaxing)
 .eh_frame      0x000000000809db28      0x5f8 ./objs/plane.o
                                        0x758 (size before relaxing)
 .eh_frame      0x000000000809e120      0x188 ./objs/player.o
                                        0x1c0 (size before relaxing)
 .eh_frame      0x000000000809e2a8      0x1b4 ./objs/rect.o
                                        0x1cc (size before relaxing)
 .eh_frame      0x000000000809e45c      0x15c ./objs/socket.o
                                        0x194 (size before relaxing)
 .eh_frame      0x000000000809e5b8      0x864 ./objs/sprite.o
                                        0xab4 (size before relaxing)
 .eh_frame      0x000000000809ee1c      0x890 ./objs/system.o
                                        0x8c8 (size before relaxing)
 .eh_frame      0x000000000809f6ac      0x494 ./objs/text.o
                                        0x4cc (size before relaxing)
 .eh_frame      0x000000000809fb40     0x1484 ./objs/tilemap_xp.o
                                       0x1714 (size before relaxing)
 .eh_frame      0x00000000080a0fc4       0x40 ./objs/time_qt.o
                                         0x58 (size before relaxing)
 .eh_frame      0x00000000080a1004       0xa8 ./objs/tone.o
                                         0xc0 (size before relaxing)
 .eh_frame      0x00000000080a10ac      0x4ec ./objs/viewport.o
                                        0x854 (size before relaxing)
 .eh_frame      0x00000000080a1598      0x6dc ./objs/window_xp.o
                                        0x92c (size before relaxing)
 .eh_frame      0x00000000080a1c74      0x6f0 ./objs/windowui_qt.o
                                        0x8a0 (size before relaxing)
 .eh_frame      0x00000000080a2364       0xc0 ./objs/zobj.o
                                         0xd8 (size before relaxing)
 .eh_frame      0x00000000080a2424        0x4 /usr/local/lib/gcc/i686-pc-linux-gnu/4.5.0/crtend.o

.gcc_except_table
                0x00000000080a2428      0xde7
 *(.gcc_except_table .gcc_except_table.*)
 .gcc_except_table
                0x00000000080a2428       0x50 ./objs/argss_audio.o
 .gcc_except_table
                0x00000000080a2478      0x1eb ./objs/argss_bitmap.o
 .gcc_except_table
                0x00000000080a2663       0x12 ./objs/argss_graphics.o
 .gcc_except_table
                0x00000000080a2675       0x42 ./objs/argss_output.o
 .gcc_except_table
                0x00000000080a26b7       0x5f ./objs/argss_ruby.o
 .gcc_except_table
                0x00000000080a2716       0x17 ./objs/argss_sprite.o
 .gcc_except_table
                0x00000000080a272d       0x17 ./objs/argss_viewport.o
 .gcc_except_table
                0x00000000080a2744       0x4d ./objs/audio.o
 .gcc_except_table
                0x00000000080a2791      0x1e8 ./objs/bitmap.o
 .gcc_except_table
                0x00000000080a2979       0x8e ./objs/filefinder_qt.o
 .gcc_except_table
                0x00000000080a2a07       0x70 ./objs/graphics.o
 .gcc_except_table
                0x00000000080a2a77        0xf ./objs/hslrgb.o
 *fill*         0x00000000080a2a86        0x2 00
 .gcc_except_table
                0x00000000080a2a88       0xd4 ./objs/input.o
 .gcc_except_table
                0x00000000080a2b5c       0x33 ./objs/inputbuttons_qt.o
 .gcc_except_table
                0x00000000080a2b8f       0x23 ./objs/main.o
 .gcc_except_table
                0x00000000080a2bb2       0x5d ./objs/msgbox_qt.o
 .gcc_except_table
                0x00000000080a2c0f       0x57 ./objs/output.o
 .gcc_except_table
                0x00000000080a2c66       0x49 ./objs/plane.o
 .gcc_except_table
                0x00000000080a2caf       0x22 ./objs/player.o
 .gcc_except_table
                0x00000000080a2cd1       0x12 ./objs/socket.o
 .gcc_except_table
                0x00000000080a2ce3       0x97 ./objs/sprite.o
 *fill*         0x00000000080a2d7a        0x2 00
 .gcc_except_table
                0x00000000080a2d7c       0x6e ./objs/system.o
 *fill*         0x00000000080a2dea        0x2 00
 .gcc_except_table
                0x00000000080a2dec       0x65 ./objs/text.o
 *fill*         0x00000000080a2e51        0x3 00
 .gcc_except_table
                0x00000000080a2e54      0x23d ./objs/tilemap_xp.o
 .gcc_except_table
                0x00000000080a3091       0x9c ./objs/viewport.o
 .gcc_except_table
                0x00000000080a312d       0x7c ./objs/window_xp.o
 *fill*         0x00000000080a31a9        0x3 00
 .gcc_except_table
                0x00000000080a31ac       0x63 ./objs/windowui_qt.o
                0x00000000080a320f                . = (ALIGN (0x1000) - ((0x1000 - .) & 0xfff))
                0x00000000080a420f                . = (0x1000 DATA_SEGMENT_ALIGN 0x1000)

.eh_frame
 *(.eh_frame)

.gcc_except_table
 *(.gcc_except_table .gcc_except_table.*)

.tdata
 *(.tdata .tdata.* .gnu.linkonce.td.*)

.tbss
 *(.tbss .tbss.* .gnu.linkonce.tb.*)
 *(.tcommon)

.preinit_array  0x00000000080a420f        0x0
                0x00000000080a420f                PROVIDE (__preinit_array_start, .)
 *(.preinit_array)
                0x00000000080a420f                PROVIDE (__preinit_array_end, .)

.init_array     0x00000000080a420f        0x0
                0x00000000080a420f                PROVIDE (__init_array_start, .)
 *(SORT(.init_array.*))
 *(.init_array)
                0x00000000080a420f                PROVIDE (__init_array_end, .)

.fini_array     0x00000000080a420f        0x0
                0x00000000080a420f                PROVIDE (__fini_array_start, .)
 *(.fini_array)
 *(SORT(.fini_array.*))
                0x00000000080a420f                PROVIDE (__fini_array_end, .)

.ctors          0x00000000080a4210       0x38
 *crtbegin.o(.ctors)
 .ctors         0x00000000080a4210        0x4 /usr/local/lib/gcc/i686-pc-linux-gnu/4.5.0/crtbegin.o
 *crtbegin?.o(.ctors)
 *(EXCLUDE_FILE(*crtend?.o *crtend.o) .ctors)
 .ctors         0x00000000080a4214        0x4 ./objs/argss_ruby.o
 .ctors         0x00000000080a4218        0x4 ./objs/audio.o
 .ctors         0x00000000080a421c        0x4 ./objs/bitmap.o
 .ctors         0x00000000080a4220        0x4 ./objs/console_qt.o
 .ctors         0x00000000080a4224        0x4 ./objs/filefinder_qt.o
 .ctors         0x00000000080a4228        0x4 ./objs/graphics.o
 .ctors         0x00000000080a422c        0x4 ./objs/input.o
 .ctors         0x00000000080a4230        0x4 ./objs/inputbuttons_qt.o
 .ctors         0x00000000080a4234        0x4 ./objs/main.o
 .ctors         0x00000000080a4238        0x4 ./objs/output.o
 .ctors         0x00000000080a423c        0x4 ./objs/system.o
 .ctors         0x00000000080a4240        0x4 ./objs/text.o
 *(SORT(.ctors.*))
 *(.ctors)
 .ctors         0x00000000080a4244        0x4 /usr/local/lib/gcc/i686-pc-linux-gnu/4.5.0/crtend.o

.dtors          0x00000000080a4248        0x8
 *crtbegin.o(.dtors)
 .dtors         0x00000000080a4248        0x4 /usr/local/lib/gcc/i686-pc-linux-gnu/4.5.0/crtbegin.o
 *crtbegin?.o(.dtors)
 *(EXCLUDE_FILE(*crtend?.o *crtend.o) .dtors)
 *(SORT(.dtors.*))
 *(.dtors)
 .dtors         0x00000000080a424c        0x4 /usr/local/lib/gcc/i686-pc-linux-gnu/4.5.0/crtend.o
                0x00000000080a424c                __DTOR_END__

.jcr            0x00000000080a4250        0x4
 *(.jcr)
 .jcr           0x00000000080a4250        0x0 /usr/local/lib/gcc/i686-pc-linux-gnu/4.5.0/crtbegin.o
 .jcr           0x00000000080a4250        0x4 /usr/local/lib/gcc/i686-pc-linux-gnu/4.5.0/crtend.o

.data.rel.ro
 *(.data.rel.ro.local* .gnu.linkonce.d.rel.ro.local.*)
 *(.data.rel.ro* .gnu.linkonce.d.rel.ro.*)

.dynamic        0x00000000080a4254      0x128
 *(.dynamic)
 .dynamic       0x00000000080a4254      0x128 /usr/lib/crt1.o
                0x00000000080a4254                _DYNAMIC

.got            0x00000000080a437c        0x4
 *(.got)
 .got           0x00000000080a437c        0x4 /usr/lib/crt1.o
 *(.igot)
                0x00000000080a4380                . = (. DATA_SEGMENT_RELRO_END 0xc)

.got.plt        0x00000000080a4380      0x524
 *(.got.plt)
 .got.plt       0x00000000080a4380      0x524 /usr/lib/crt1.o
                0x00000000080a4380                _GLOBAL_OFFSET_TABLE_
 *(.igot.plt)
 .igot.plt      0x0000000000000000        0x0 /usr/lib/crt1.o

.data           0x00000000080a48a4       0xf4
 *(.data .data.* .gnu.linkonce.d.*)
 .data          0x00000000080a48a4        0x4 /usr/lib/crt1.o
                0x00000000080a48a4                __data_start
                0x00000000080a48a4                data_start
 .data          0x00000000080a48a8        0x0 /usr/lib/crti.o
 .data          0x00000000080a48a8        0x4 /usr/local/lib/gcc/i686-pc-linux-gnu/4.5.0/crtbegin.o
                0x00000000080a48a8                __dso_handle
 .data          0x00000000080a48ac        0x0 ./objs/argss.o
 .data          0x00000000080a48ac        0x0 ./objs/argss_audio.o
 .data          0x00000000080a48ac        0x0 ./objs/argss_bitmap.o
 .data          0x00000000080a48ac        0x0 ./objs/argss_color.o
 .data          0x00000000080a48ac        0x0 ./objs/argss_error.o
 .data          0x00000000080a48ac        0x0 ./objs/argss_font.o
 .data          0x00000000080a48ac        0x0 ./objs/argss_graphics.o
 .data          0x00000000080a48ac        0x0 ./objs/argss_input.o
 .data          0x00000000080a48ac        0x0 ./objs/argss_keys.o
 .data          0x00000000080a48ac        0x0 ./objs/argss_output.o
 .data          0x00000000080a48ac        0x0 ./objs/argss_plane.o
 .data          0x00000000080a48ac        0x0 ./objs/argss_rect.o
 .data          0x00000000080a48ac        0x0 ./objs/argss_rpg.o
 .data          0x00000000080a48ac        0x0 ./objs/argss_rpg_cache.o
 .data          0x00000000080a48ac        0x0 ./objs/argss_rpg_sprite.o
 .data          0x00000000080a48ac        0x0 ./objs/argss_rpg_weather.o
 .data          0x00000000080a48ac       0xb0 ./objs/argss_ruby.o
 .data          0x00000000080a495c        0x0 ./objs/argss_sprite.o
 .data          0x00000000080a495c        0x0 ./objs/argss_table.o
 .data          0x00000000080a495c        0x0 ./objs/argss_tilemap_xp.o
 .data          0x00000000080a495c        0x0 ./objs/argss_tilemapautotiles_xp.o
 .data          0x00000000080a495c        0x0 ./objs/argss_tone.o
 .data          0x00000000080a495c        0x0 ./objs/argss_viewport.o
 .data          0x00000000080a495c        0x0 ./objs/argss_window_xp.o
 .data          0x00000000080a495c        0x0 ./objs/audio.o
 .data          0x00000000080a495c        0x0 ./objs/bitmap.o
 .data          0x00000000080a495c        0x0 ./objs/buffer.o
 .data          0x00000000080a495c        0x0 ./objs/color.o
 .data          0x00000000080a495c        0x0 ./objs/console_qt.o
 .data          0x00000000080a495c        0x0 ./objs/filefinder_qt.o
 .data          0x00000000080a495c        0x0 ./objs/graphics.o
 .data          0x00000000080a495c        0x0 ./objs/hslrgb.o
 .data          0x00000000080a495c        0x0 ./objs/input.o
 .data          0x00000000080a495c        0x0 ./objs/inputbuttons_qt.o
 .data          0x00000000080a495c        0x0 ./objs/inputkeys.o
 .data          0x00000000080a495c        0x0 ./objs/main.o
 .data          0x00000000080a495c        0x0 ./objs/msgbox_qt.o
 .data          0x00000000080a495c        0x0 ./objs/output.o
 .data          0x00000000080a495c        0x0 ./objs/plane.o
 .data          0x00000000080a495c        0x0 ./objs/player.o
 .data          0x00000000080a495c        0x0 ./objs/rect.o
 .data          0x00000000080a495c        0x0 ./objs/socket.o
 .data          0x00000000080a495c        0x0 ./objs/sprite.o
 .data          0x00000000080a495c        0x0 ./objs/system.o
 .data          0x00000000080a495c        0x0 ./objs/text.o
 .data          0x00000000080a495c        0x0 ./objs/tilemap_xp.o
 .data          0x00000000080a495c        0x0 ./objs/time_qt.o
 .data          0x00000000080a495c        0x0 ./objs/tone.o
 .data          0x00000000080a495c        0x0 ./objs/viewport.o
 .data          0x00000000080a495c        0x0 ./objs/window_xp.o
 .data          0x00000000080a495c        0x0 ./objs/windowui_qt.o
 .data          0x00000000080a495c        0x0 ./objs/zobj.o
 .data          0x00000000080a495c       0x14 src/SOIL/projects/makefile/obj/SOIL.o
                0x00000000080a495c                result_string_pointer
 .data          0x00000000080a4970        0x0 src/SOIL/projects/makefile/obj/image_DXT.o
 .data          0x00000000080a4970        0x0 src/SOIL/projects/makefile/obj/image_helper.o
 .data          0x00000000080a4970       0x28 src/SOIL/projects/makefile/obj/stb_image_aug.o
 .data          0x00000000080a4998        0x0 ./objs/ConvertUTF.o
 .data          0x00000000080a4998        0x0 /usr/lib/libc_nonshared.a(elf-init.oS)
 .data          0x00000000080a4998        0x0 /usr/local/lib/gcc/i686-pc-linux-gnu/4.5.0/crtend.o
 .data          0x00000000080a4998        0x0 /usr/lib/crtn.o

.data1
 *(.data1)
                0x00000000080a4998                _edata = .
                0x00000000080a4998                PROVIDE (edata, .)
                0x00000000080a4998                __bss_start = .

.bss            0x00000000080a49a0     0x1440
 *(.dynbss)
 .dynbss        0x00000000080a49a0      0x2ac /usr/lib/crt1.o
                0x00000000080a49a0                rb_cTrueClass
                0x00000000080a49a8                rb_cFixnum
                0x00000000080a49b0                rb_cObject
                0x00000000080a49c0                _ZNSs4_Rep20_S_empty_rep_storageE@@GLIBCXX_3.4
                0x00000000080a49d0                rb_eTypeError
                0x00000000080a49e0                _ZTVN10__cxxabiv117__class_type_infoE@@CXXABI_1.3
                0x00000000080a4a20                _ZSt4cout@@GLIBCXX_3.4
                0x00000000080a4ac0                _ZTVSt14basic_ifstreamIcSt11char_traitsIcEE@@GLIBCXX_3.4
                0x00000000080a4ae8                _ZTI9QGLWidget
                0x00000000080a4af4                rb_cFalseClass
                0x00000000080a4af8                rb_cNumeric
                0x00000000080a4afc                rb_cSymbol
                0x00000000080a4b00                _ZTVN10__cxxabiv120__si_class_type_infoE@@CXXABI_1.3
                0x00000000080a4b2c                _ZTI7QThread
                0x00000000080a4b38                rb_mErrno
                0x00000000080a4b40                _ZTTSt14basic_ifstreamIcSt11char_traitsIcEE@@GLIBCXX_3.4
                0x00000000080a4b60                _ZSt3cin@@GLIBCXX_3.4
                0x00000000080a4c00                rb_eArgError
                0x00000000080a4c08                _ZTVSt9basic_iosIcSt11char_traitsIcEE@@GLIBCXX_3.4
                0x00000000080a4c20                rb_eSystemExit
                0x00000000080a4c40                rb_cNilClass
                0x00000000080a4c44                rb_eStandardError
                0x00000000080a4c48                stdin@@GLIBC_2.0
 *(.bss .bss.* .gnu.linkonce.b.*)
 .bss           0x00000000080a4c4c        0x0 /usr/lib/crt1.o
 .bss           0x00000000080a4c4c        0x0 /usr/lib/crti.o
 .bss           0x00000000080a4c4c        0x8 /usr/local/lib/gcc/i686-pc-linux-gnu/4.5.0/crtbegin.o
 .bss           0x00000000080a4c54        0x0 ./objs/argss.o
 .bss           0x00000000080a4c54        0x4 ./objs/argss_audio.o
                0x00000000080a4c54                _ZN5ARGSS6AAudio2idE
 .bss           0x00000000080a4c58        0x4 ./objs/argss_bitmap.o
                0x00000000080a4c58                _ZN5ARGSS7ABitmap2idE
 .bss           0x00000000080a4c5c        0xc ./objs/argss_color.o
                0x00000000080a4c5c                _ZN5ARGSS6AColor2idE
 .bss           0x00000000080a4c68        0x4 ./objs/argss_error.o
                0x00000000080a4c68                _ZN5ARGSS6AError2idE
 .bss           0x00000000080a4c6c        0x4 ./objs/argss_font.o
                0x00000000080a4c6c                _ZN5ARGSS5AFont2idE
 .bss           0x00000000080a4c70        0x4 ./objs/argss_graphics.o
                0x00000000080a4c70                _ZN5ARGSS9AGraphics2idE
 .bss           0x00000000080a4c74        0x4 ./objs/argss_input.o
                0x00000000080a4c74                _ZN5ARGSS6AInput2idE
 .bss           0x00000000080a4c78        0x4 ./objs/argss_keys.o
                0x00000000080a4c78                _ZN5ARGSS5AKeys2idE
 .bss           0x00000000080a4c7c       0x10 ./objs/argss_output.o
                0x00000000080a4c7c                _ZN5ARGSS7AOutput2idE
                0x00000000080a4c80                _ZN5ARGSS7AOutput9stdout_idE
                0x00000000080a4c84                _ZN5ARGSS7AOutput9stderr_idE
                0x00000000080a4c88                _ZN5ARGSS7AOutput8stdin_idE
 .bss           0x00000000080a4c8c        0x4 ./objs/argss_plane.o
                0x00000000080a4c8c                _ZN5ARGSS6APlane2idE
 .bss           0x00000000080a4c90        0xc ./objs/argss_rect.o
                0x00000000080a4c90                _ZN5ARGSS5ARect2idE
 .bss           0x00000000080a4c9c       0x84 ./objs/argss_rpg.o
                0x00000000080a4c9c                _ZN5ARGSS4ARPG2idE
                0x00000000080a4ca0                _ZN5ARGSS4ARPG6Map_idE
                0x00000000080a4ca4                _ZN5ARGSS4ARPG10MapInfo_idE
                0x00000000080a4ca8                _ZN5ARGSS4ARPG8Event_idE
                0x00000000080a4cac                _ZN5ARGSS4ARPG12EventPage_idE
                0x00000000080a4cb0                _ZN5ARGSS4ARPG21EventPageCondition_idE
                0x00000000080a4cb4                _ZN5ARGSS4ARPG19EventPageGraphic_idE
                0x00000000080a4cb8                _ZN5ARGSS4ARPG15EventCommand_idE
                0x00000000080a4cbc                _ZN5ARGSS4ARPG12MoveRoute_idE
                0x00000000080a4cc0                _ZN5ARGSS4ARPG14MoveCommand_idE
                0x00000000080a4cc4                _ZN5ARGSS4ARPG8Actor_idE
                0x00000000080a4cc8                _ZN5ARGSS4ARPG8Class_idE
                0x00000000080a4ccc                _ZN5ARGSS4ARPG16ClassLearning_idE
                0x00000000080a4cd0                _ZN5ARGSS4ARPG8Skill_idE
                0x00000000080a4cd4                _ZN5ARGSS4ARPG7Item_idE
                0x00000000080a4cd8                _ZN5ARGSS4ARPG9Weapon_idE
                0x00000000080a4cdc                _ZN5ARGSS4ARPG8Armor_idE
                0x00000000080a4ce0                _ZN5ARGSS4ARPG8Enemy_idE
                0x00000000080a4ce4                _ZN5ARGSS4ARPG14EnemyAction_idE
                0x00000000080a4ce8                _ZN5ARGSS4ARPG8Troop_idE
                0x00000000080a4cec                _ZN5ARGSS4ARPG14TroopMember_idE
                0x00000000080a4cf0                _ZN5ARGSS4ARPG12TroopPage_idE
                0x00000000080a4cf4                _ZN5ARGSS4ARPG21TroopPageCondition_idE
                0x00000000080a4cf8                _ZN5ARGSS4ARPG8State_idE
                0x00000000080a4cfc                _ZN5ARGSS4ARPG12Animation_idE
                0x00000000080a4d00                _ZN5ARGSS4ARPG17AnimationFrame_idE
                0x00000000080a4d04                _ZN5ARGSS4ARPG18AnimationTiming_idE
                0x00000000080a4d08                _ZN5ARGSS4ARPG10Tileset_idE
                0x00000000080a4d0c                _ZN5ARGSS4ARPG14CommonEvent_idE
                0x00000000080a4d10                _ZN5ARGSS4ARPG9System_idE
                0x00000000080a4d14                _ZN5ARGSS4ARPG14SystemWords_idE
                0x00000000080a4d18                _ZN5ARGSS4ARPG20SystemTestBattler_idE
                0x00000000080a4d1c                _ZN5ARGSS4ARPG12AudioFile_idE
 .bss           0x00000000080a4d20       0x14 ./objs/argss_rpg_cache.o
                0x00000000080a4d20                _ZN5ARGSS4ARPG6ACache2idE
 .bss           0x00000000080a4d34      0x190 ./objs/argss_rpg_sprite.o
                0x00000000080a4d34                _ZN5ARGSS4ARPG7ASprite2idE
 .bss           0x00000000080a4ec4        0x4 ./objs/argss_rpg_weather.o
                0x00000000080a4ec4                _ZN5ARGSS4ARPG8AWeather2idE
 .bss           0x00000000080a4ec8       0x18 ./objs/argss_ruby.o
                0x00000000080a4ec8                _ZN5ARGSS5ARuby17protected_objectsE
 .bss           0x00000000080a4ee0        0x4 ./objs/argss_sprite.o
                0x00000000080a4ee0                _ZN5ARGSS7ASprite2idE
 .bss           0x00000000080a4ee4       0x18 ./objs/argss_table.o
                0x00000000080a4ee4                _ZN5ARGSS6ATable2idE
 .bss           0x00000000080a4efc        0x4 ./objs/argss_tilemap_xp.o
                0x00000000080a4efc                _ZN5ARGSS8ATilemap2idE
 .bss           0x00000000080a4f00        0x4 ./objs/argss_tilemapautotiles_xp.o
                0x00000000080a4f00                _ZN5ARGSS17ATilemapAutotiles2idE
 .bss           0x00000000080a4f04        0xc ./objs/argss_tone.o
                0x00000000080a4f04                _ZN5ARGSS5ATone2idE
 .bss           0x00000000080a4f10        0x4 ./objs/argss_viewport.o
                0x00000000080a4f10                _ZN5ARGSS9AViewport2idE
 .bss           0x00000000080a4f14        0x4 ./objs/argss_window_xp.o
                0x00000000080a4f14                _ZN5ARGSS7AWindow2idE
 .bss           0x00000000080a4f18       0x48 ./objs/audio.o
                0x00000000080a4f18                _ZN5Audio3bgmE
                0x00000000080a4f1c                _ZN5Audio10bgm_volumeE
                0x00000000080a4f20                _ZN5Audio11bgm_playingE
                0x00000000080a4f24                _ZN5Audio3bgsE
                0x00000000080a4f28                _ZN5Audio11bgs_channelE
                0x00000000080a4f2c                _ZN5Audio2meE
                0x00000000080a4f30                _ZN5Audio10me_playingE
                0x00000000080a4f34                _ZN5Audio6soundsE
                0x00000000080a4f4c                _ZN5Audio9it_soundsE
 .bss           0x00000000080a4f60       0x1c ./objs/bitmap.o
                0x00000000080a4f60                _ZN6Bitmap7bitmapsE
 .bss           0x00000000080a4f7c        0x0 ./objs/buffer.o
 .bss           0x00000000080a4f7c        0x0 ./objs/color.o
 .bss           0x00000000080a4f7c        0x1 ./objs/console_qt.o
 *fill*         0x00000000080a4f7d        0x3 00
 .bss           0x00000000080a4f80       0x11 ./objs/filefinder_qt.o
                0x00000000080a4f80                _ZN10FileFinder9rtp_pathsE
                0x00000000080a4f8c                _ZN10FileFinder10fonts_pathE
 *fill*         0x00000000080a4f91        0x7 00
 .bss           0x00000000080a4f98       0x6c ./objs/graphics.o
                0x00000000080a4f98                _ZN8Graphics3fpsE
                0x00000000080a4f9c                _ZN8Graphics9framerateE
                0x00000000080a4fa0                _ZN8Graphics10framecountE
                0x00000000080a4fa4                _ZN8Graphics9backcolorE
                0x00000000080a4fb4                _ZN8Graphics10brightnessE
                0x00000000080a4fb8                _ZN8Graphics18framerate_intervalE
                0x00000000080a4fc0                _ZN8Graphics12drawable_mapE
                0x00000000080a4fd8                _ZN8Graphics15it_drawable_mapE
                0x00000000080a4fdc                _ZN8Graphics5zlistE
                0x00000000080a4fe4                _ZN8Graphics8it_zlistE
                0x00000000080a4fe8                _ZN8Graphics8creationE
                0x00000000080a4fec                _ZN8Graphics9last_ticsE
                0x00000000080a4ff0                _ZN8Graphics14last_tics_waitE
                0x00000000080a4ff4                _ZN8Graphics13next_tics_fpsE
 .bss           0x00000000080a5004        0x0 ./objs/hslrgb.o
 .bss           0x00000000080a5004       0x64 ./objs/input.o
                0x00000000080a5004                _ZN5Input10press_timeE
                0x00000000080a5010                _ZN5Input9triggeredE
                0x00000000080a5024                _ZN5Input8repeatedE
                0x00000000080a5038                _ZN5Input8releasedE
                0x00000000080a504c                _ZN5Input4dir4E
                0x00000000080a5050                _ZN5Input4dir8E
                0x00000000080a5054                _ZN5Input17start_repeat_timeE
                0x00000000080a5058                _ZN5Input11repeat_timeE
                0x00000000080a505c                _ZN5Input7dirkeysE
 .bss           0x00000000080a5068       0x18 ./objs/inputbuttons_qt.o
                0x00000000080a5068                _ZN5Input7buttonsE
 .bss           0x00000000080a5080        0x0 ./objs/inputkeys.o
 .bss           0x00000000080a5080        0x1 ./objs/main.o
 *fill*         0x00000000080a5081        0x3 00
 .bss           0x00000000080a5084        0x0 ./objs/msgbox_qt.o
 .bss           0x00000000080a5084        0x9 ./objs/output.o
                0x00000000080a5084                _ZN6Output11output_typeE
                0x00000000080a5088                _ZN6Output8filenameE
 *fill*         0x00000000080a508d        0x3 00
 .bss           0x00000000080a5090        0x0 ./objs/plane.o
 .bss           0x00000000080a5090        0x6 ./objs/player.o
                0x00000000080a5090                _ZN6Player11main_windowE
                0x00000000080a5094                _ZN6Player5focusE
                0x00000000080a5095                _ZN6Player12alt_pressingE
 *fill*         0x00000000080a5096        0x2 00
 .bss           0x00000000080a5098        0x0 ./objs/rect.o
 .bss           0x00000000080a5098        0x0 ./objs/socket.o
 .bss           0x00000000080a5098        0x0 ./objs/sprite.o
 .bss           0x00000000080a5098       0x1c ./objs/system.o
                0x00000000080a5098                _ZN6System5TitleE
                0x00000000080a509c                _ZN6System11ScriptsPathE
                0x00000000080a50a0                _ZN6System4RTPSE
                0x00000000080a50ac                _ZN6System5WidthE
                0x00000000080a50b0                _ZN6System6HeightE
 *fill*         0x00000000080a50b4        0x4 00
 .bss._ZGVZNK15CSimpleIniTemplIc16SI_GenericNoCaseIcE11SI_ConvertAIcEE6IsLessEPKcS6_E6isLess
                0x00000000080a50b8        0x8 ./objs/system.o
                0x00000000080a50b8                _ZGVZNK15CSimpleIniTemplIc16SI_GenericNoCaseIcE11SI_ConvertAIcEE6IsLessEPKcS6_E6isLess
 .bss._ZZNK15CSimpleIniTemplIc16SI_GenericNoCaseIcE11SI_ConvertAIcEE6IsLessEPKcS6_E6isLess
                0x00000000080a50c0        0x1 ./objs/system.o
                0x00000000080a50c0                _ZZNK15CSimpleIniTemplIc16SI_GenericNoCaseIcE11SI_ConvertAIcEE6IsLessEPKcS6_E6isLess
 *fill*         0x00000000080a50c1        0x7 00
 .bss._ZGVZNK15CSimpleIniTemplIc16SI_GenericNoCaseIcE11SI_ConvertAIcEE5Entry8KeyOrderclERKS5_S8_E6isLess
                0x00000000080a50c8        0x8 ./objs/system.o
                0x00000000080a50c8                _ZGVZNK15CSimpleIniTemplIc16SI_GenericNoCaseIcE11SI_ConvertAIcEE5Entry8KeyOrderclERKS5_S8_E6isLess
 .bss._ZZNK15CSimpleIniTemplIc16SI_GenericNoCaseIcE11SI_ConvertAIcEE5Entry8KeyOrderclERKS5_S8_E6isLess
                0x00000000080a50d0        0x1 ./objs/system.o
                0x00000000080a50d0                _ZZNK15CSimpleIniTemplIc16SI_GenericNoCaseIcE11SI_ConvertAIcEE5Entry8KeyOrderclERKS5_S8_E6isLess
 *fill*         0x00000000080a50d1        0x3 00
 .bss           0x00000000080a50d4       0x1c ./objs/text.o
                0x00000000080a50d4                _ZN4Text7libraryE
                0x00000000080a50d8                _ZN4Text5fontsE
 .bss           0x00000000080a50f0      0x300 ./objs/tilemap_xp.o
                0x00000000080a50f0                _ZN7Tilemap12autotiles_idE
 .bss           0x00000000080a53f0        0x0 ./objs/time_qt.o
 .bss           0x00000000080a53f0        0x0 ./objs/tone.o
 .bss           0x00000000080a53f0        0x0 ./objs/viewport.o
 .bss           0x00000000080a53f0        0x0 ./objs/window_xp.o
 .bss           0x00000000080a53f0        0x0 ./objs/windowui_qt.o
 .bss           0x00000000080a53f0        0x0 ./objs/zobj.o
 .bss           0x00000000080a53f0        0x4 src/SOIL/projects/makefile/obj/SOIL.o
                0x00000000080a53f0                soilGlCompressedTexImage2D
 .bss           0x00000000080a53f4        0x0 src/SOIL/projects/makefile/obj/image_DXT.o
 .bss           0x00000000080a53f4        0x0 src/SOIL/projects/makefile/obj/image_helper.o
 *fill*         0x00000000080a53f4        0xc 00
 .bss           0x00000000080a5400      0x948 src/SOIL/projects/makefile/obj/stb_image_aug.o
 .bss           0x00000000080a5d48        0x0 ./objs/ConvertUTF.o
 .bss           0x00000000080a5d48        0x0 /usr/lib/libc_nonshared.a(elf-init.oS)
 .bss           0x00000000080a5d48        0x0 /usr/local/lib/gcc/i686-pc-linux-gnu/4.5.0/crtend.o
 .bss           0x00000000080a5d48        0x0 /usr/lib/crtn.o
 *(COMMON)
 *fill*         0x00000000080a5d48       0x18 00
 COMMON         0x00000000080a5d60       0x80 src/SOIL/projects/makefile/obj/stb_image_aug.o
                0x00000000080a5d60                loaders
                0x00000000080a5de0                . = ALIGN ((. != 0x0)?0x4:0x1)
                0x00000000080a5de0                . = ALIGN (0x4)
                0x00000000080a5de0                . = ALIGN (0x4)
                0x00000000080a5de0                _end = .
                0x00000000080a5de0                PROVIDE (end, .)
                0x00000000080a5de0                . = DATA_SEGMENT_END (.)

.stab
 *(.stab)

.stabstr
 *(.stabstr)

.stab.excl
 *(.stab.excl)

.stab.exclstr
 *(.stab.exclstr)

.stab.index
 *(.stab.index)

.stab.indexstr
 *(.stab.indexstr)

.comment        0x0000000000000000       0x34
 *(.comment)
 .comment       0x0000000000000000       0x11 /usr/local/lib/gcc/i686-pc-linux-gnu/4.5.0/crtbegin.o
                                         0x12 (size before relaxing)
 .comment       0x0000000000000000       0x12 ./objs/argss.o
 .comment       0x0000000000000000       0x12 ./objs/argss_audio.o
 .comment       0x0000000000000000       0x12 ./objs/argss_bitmap.o
 .comment       0x0000000000000000       0x12 ./objs/argss_color.o
 .comment       0x0000000000000000       0x12 ./objs/argss_error.o
 .comment       0x0000000000000000       0x12 ./objs/argss_font.o
 .comment       0x0000000000000000       0x12 ./objs/argss_graphics.o
 .comment       0x0000000000000000       0x12 ./objs/argss_input.o
 .comment       0x0000000000000000       0x12 ./objs/argss_keys.o
 .comment       0x0000000000000000       0x12 ./objs/argss_output.o
 .comment       0x0000000000000000       0x12 ./objs/argss_plane.o
 .comment       0x0000000000000000       0x12 ./objs/argss_rect.o
 .comment       0x0000000000000000       0x12 ./objs/argss_rpg.o
 .comment       0x0000000000000000       0x12 ./objs/argss_rpg_cache.o
 .comment       0x0000000000000000       0x12 ./objs/argss_rpg_sprite.o
 .comment       0x0000000000000000       0x12 ./objs/argss_rpg_weather.o
 .comment       0x0000000000000000       0x12 ./objs/argss_ruby.o
 .comment       0x0000000000000000       0x12 ./objs/argss_sprite.o
 .comment       0x0000000000000000       0x12 ./objs/argss_table.o
 .comment       0x0000000000000000       0x12 ./objs/argss_tilemap_xp.o
 .comment       0x0000000000000000       0x12 ./objs/argss_tilemapautotiles_xp.o
 .comment       0x0000000000000000       0x12 ./objs/argss_tone.o
 .comment       0x0000000000000000       0x12 ./objs/argss_viewport.o
 .comment       0x0000000000000000       0x12 ./objs/argss_window_xp.o
 .comment       0x0000000000000000       0x12 ./objs/audio.o
 .comment       0x0000000000000000       0x12 ./objs/bitmap.o
 .comment       0x0000000000000000       0x12 ./objs/buffer.o
 .comment       0x0000000000000000       0x12 ./objs/color.o
 .comment       0x0000000000000000       0x12 ./objs/console_qt.o
 .comment       0x0000000000000000       0x12 ./objs/filefinder_qt.o
 .comment       0x0000000000000000       0x12 ./objs/graphics.o
 .comment       0x0000000000000000       0x12 ./objs/hslrgb.o
 .comment       0x0000000000000000       0x12 ./objs/input.o
 .comment       0x0000000000000000       0x12 ./objs/inputbuttons_qt.o
 .comment       0x0000000000000000       0x12 ./objs/inputkeys.o
 .comment       0x0000000000000000       0x12 ./objs/main.o
 .comment       0x0000000000000000       0x12 ./objs/msgbox_qt.o
 .comment       0x0000000000000000       0x12 ./objs/output.o
 .comment       0x0000000000000000       0x12 ./objs/plane.o
 .comment       0x0000000000000000       0x12 ./objs/player.o
 .comment       0x0000000000000000       0x12 ./objs/rect.o
 .comment       0x0000000000000000       0x12 ./objs/socket.o
 .comment       0x0000000000000000       0x12 ./objs/sprite.o
 .comment       0x0000000000000000       0x12 ./objs/system.o
 .comment       0x0000000000000000       0x12 ./objs/text.o
 .comment       0x0000000000000000       0x12 ./objs/tilemap_xp.o
 .comment       0x0000000000000000       0x12 ./objs/time_qt.o
 .comment       0x0000000000000000       0x12 ./objs/tone.o
 .comment       0x0000000000000000       0x12 ./objs/viewport.o
 .comment       0x0000000000000000       0x12 ./objs/window_xp.o
 .comment       0x0000000000000000       0x12 ./objs/windowui_qt.o
 .comment       0x0000000000000000       0x12 ./objs/zobj.o
 .comment       0x0000000000000000       0x12 src/SOIL/projects/makefile/obj/SOIL.o
 .comment       0x0000000000000000       0x12 src/SOIL/projects/makefile/obj/image_DXT.o
 .comment       0x0000000000000000       0x12 src/SOIL/projects/makefile/obj/image_helper.o
 .comment       0x0000000000000000       0x12 src/SOIL/projects/makefile/obj/stb_image_aug.o
 .comment       0x0000000000000000       0x12 ./objs/ConvertUTF.o
 .comment       0x0000000000000011       0x23 /usr/lib/libc_nonshared.a(elf-init.oS)
                                         0x24 (size before relaxing)
 .comment       0x0000000000000000       0x12 /usr/local/lib/gcc/i686-pc-linux-gnu/4.5.0/crtend.o

.debug
 *(.debug)

.line
 *(.line)

.debug_srcinfo
 *(.debug_srcinfo)

.debug_sfnames
 *(.debug_sfnames)

.debug_aranges  0x0000000000000000     0x11f0
 *(.debug_aranges)
 .debug_aranges
                0x0000000000000000       0x20 ./objs/argss.o
 .debug_aranges
                0x0000000000000020       0x20 ./objs/argss_audio.o
 .debug_aranges
                0x0000000000000040       0x20 ./objs/argss_bitmap.o
 .debug_aranges
                0x0000000000000060       0x20 ./objs/argss_color.o
 .debug_aranges
                0x0000000000000080       0x20 ./objs/argss_error.o
 .debug_aranges
                0x00000000000000a0       0x20 ./objs/argss_font.o
 .debug_aranges
                0x00000000000000c0       0x20 ./objs/argss_graphics.o
 .debug_aranges
                0x00000000000000e0       0x20 ./objs/argss_input.o
 .debug_aranges
                0x0000000000000100       0x20 ./objs/argss_keys.o
 .debug_aranges
                0x0000000000000120       0x20 ./objs/argss_output.o
 .debug_aranges
                0x0000000000000140       0x20 ./objs/argss_plane.o
 .debug_aranges
                0x0000000000000160       0x20 ./objs/argss_rect.o
 .debug_aranges
                0x0000000000000180       0x20 ./objs/argss_rpg.o
 .debug_aranges
                0x00000000000001a0       0x20 ./objs/argss_rpg_cache.o
 .debug_aranges
                0x00000000000001c0       0x20 ./objs/argss_rpg_sprite.o
 .debug_aranges
                0x00000000000001e0       0x20 ./objs/argss_rpg_weather.o
 .debug_aranges
                0x0000000000000200       0x28 ./objs/argss_ruby.o
 .debug_aranges
                0x0000000000000228       0x20 ./objs/argss_sprite.o
 .debug_aranges
                0x0000000000000248       0x20 ./objs/argss_table.o
 .debug_aranges
                0x0000000000000268       0x20 ./objs/argss_tilemap_xp.o
 .debug_aranges
                0x0000000000000288       0x20 ./objs/argss_tilemapautotiles_xp.o
 .debug_aranges
                0x00000000000002a8       0x20 ./objs/argss_tone.o
 .debug_aranges
                0x00000000000002c8       0x20 ./objs/argss_viewport.o
 .debug_aranges
                0x00000000000002e8       0x20 ./objs/argss_window_xp.o
 .debug_aranges
                0x0000000000000308       0x88 ./objs/audio.o
 .debug_aranges
                0x0000000000000390       0xd0 ./objs/bitmap.o
 .debug_aranges
                0x0000000000000460       0x20 ./objs/buffer.o
 .debug_aranges
                0x0000000000000480       0x20 ./objs/color.o
 .debug_aranges
                0x00000000000004a0       0x20 ./objs/console_qt.o
 .debug_aranges
                0x00000000000004c0       0x30 ./objs/filefinder_qt.o
 .debug_aranges
                0x00000000000004f0       0xc8 ./objs/graphics.o
 .debug_aranges
                0x00000000000005b8       0x20 ./objs/hslrgb.o
 .debug_aranges
                0x00000000000005d8      0x1e0 ./objs/input.o
 .debug_aranges
                0x00000000000007b8       0xa8 ./objs/inputbuttons_qt.o
 .debug_aranges
                0x0000000000000860       0x20 ./objs/inputkeys.o
 .debug_aranges
                0x0000000000000880       0x38 ./objs/main.o
 .debug_aranges
                0x00000000000008b8       0x38 ./objs/msgbox_qt.o
 .debug_aranges
                0x00000000000008f0       0x20 ./objs/output.o
 .debug_aranges
                0x0000000000000910       0x80 ./objs/plane.o
 .debug_aranges
                0x0000000000000990       0x28 ./objs/player.o
 .debug_aranges
                0x00000000000009b8       0x20 ./objs/rect.o
 .debug_aranges
                0x00000000000009d8       0x20 ./objs/socket.o
 .debug_aranges
                0x00000000000009f8       0x80 ./objs/sprite.o
 .debug_aranges
                0x0000000000000a78      0x138 ./objs/system.o
 .debug_aranges
                0x0000000000000bb0       0xb8 ./objs/text.o
 .debug_aranges
                0x0000000000000c68      0x2e0 ./objs/tilemap_xp.o
 .debug_aranges
                0x0000000000000f48       0x20 ./objs/time_qt.o
 .debug_aranges
                0x0000000000000f68       0x20 ./objs/tone.o
 .debug_aranges
                0x0000000000000f88       0xa8 ./objs/viewport.o
 .debug_aranges
                0x0000000000001030       0x80 ./objs/window_xp.o
 .debug_aranges
                0x00000000000010b0      0x100 ./objs/windowui_qt.o
 .debug_aranges
                0x00000000000011b0       0x20 ./objs/zobj.o
 .debug_aranges
                0x00000000000011d0       0x20 ./objs/ConvertUTF.o

.debug_pubnames
                0x0000000000000000    0x16f37
 *(.debug_pubnames)
 .debug_pubnames
                0x0000000000000000       0x66 ./objs/argss.o
 .debug_pubnames
                0x0000000000000066      0x1e2 ./objs/argss_audio.o
 .debug_pubnames
                0x0000000000000248      0x3c7 ./objs/argss_bitmap.o
 .debug_pubnames
                0x000000000000060f      0x21e ./objs/argss_color.o
 .debug_pubnames
                0x000000000000082d       0x74 ./objs/argss_error.o
 .debug_pubnames
                0x00000000000008a1      0x380 ./objs/argss_font.o
 .debug_pubnames
                0x0000000000000c21      0x33d ./objs/argss_graphics.o
 .debug_pubnames
                0x0000000000000f5e      0x1a6 ./objs/argss_input.o
 .debug_pubnames
                0x0000000000001104       0x72 ./objs/argss_keys.o
 .debug_pubnames
                0x0000000000001176      0x1f2 ./objs/argss_output.o
 .debug_pubnames
                0x0000000000001368      0x3a6 ./objs/argss_plane.o
 .debug_pubnames
                0x000000000000170e      0x1df ./objs/argss_rect.o
 .debug_pubnames
                0x00000000000018ed      0x920 ./objs/argss_rpg.o
 .debug_pubnames
                0x000000000000220d      0x2d7 ./objs/argss_rpg_cache.o
 .debug_pubnames
                0x00000000000024e4      0x3fd ./objs/argss_rpg_sprite.o
 .debug_pubnames
                0x00000000000028e1      0x175 ./objs/argss_rpg_weather.o
 .debug_pubnames
                0x0000000000002a56      0x2ca ./objs/argss_ruby.o
 .debug_pubnames
                0x0000000000002d20      0x614 ./objs/argss_sprite.o
 .debug_pubnames
                0x0000000000003334      0x1d9 ./objs/argss_table.o
 .debug_pubnames
                0x000000000000350d      0x34e ./objs/argss_tilemap_xp.o
 .debug_pubnames
                0x000000000000385b      0x11e ./objs/argss_tilemapautotiles_xp.o
 .debug_pubnames
                0x0000000000003979      0x1f3 ./objs/argss_tone.o
 .debug_pubnames
                0x0000000000003b6c      0x2f8 ./objs/argss_viewport.o
 .debug_pubnames
                0x0000000000003e64      0x598 ./objs/argss_window_xp.o
 .debug_pubnames
                0x00000000000043fc      0x9cd ./objs/audio.o
 .debug_pubnames
                0x0000000000004dc9     0x1184 ./objs/bitmap.o
 .debug_pubnames
                0x0000000000005f4d       0xe3 ./objs/buffer.o
 .debug_pubnames
                0x0000000000006030       0xd8 ./objs/color.o
 .debug_pubnames
                0x0000000000006108      0x1df ./objs/console_qt.o
 .debug_pubnames
                0x00000000000062e7      0x2a9 ./objs/filefinder_qt.o
 .debug_pubnames
                0x0000000000006590      0xfd6 ./objs/graphics.o
 .debug_pubnames
                0x0000000000007566       0x49 ./objs/hslrgb.o
 .debug_pubnames
                0x00000000000075af     0x11ee ./objs/input.o
 .debug_pubnames
                0x000000000000879d      0x83f ./objs/inputbuttons_qt.o
 .debug_pubnames
                0x0000000000008fdc       0x6c ./objs/inputkeys.o
 .debug_pubnames
                0x0000000000009048      0x1bd ./objs/main.o
 .debug_pubnames
                0x0000000000009205      0x1e3 ./objs/msgbox_qt.o
 .debug_pubnames
                0x00000000000093e8      0x29d ./objs/output.o
 .debug_pubnames
                0x0000000000009685      0xbc9 ./objs/plane.o
 .debug_pubnames
                0x000000000000a24e      0x26d ./objs/player.o
 .debug_pubnames
                0x000000000000a4bb       0xe2 ./objs/rect.o
 .debug_pubnames
                0x000000000000a59d      0x102 ./objs/socket.o
 .debug_pubnames
                0x000000000000a69f      0xd9f ./objs/sprite.o
 .debug_pubnames
                0x000000000000b43e     0x51f5 ./objs/system.o
 .debug_pubnames
                0x0000000000010633      0xd33 ./objs/text.o
 .debug_pubnames
                0x0000000000011366     0x372b ./objs/tilemap_xp.o
 .debug_pubnames
                0x0000000000014a91       0x36 ./objs/time_qt.o
 .debug_pubnames
                0x0000000000014ac7       0x82 ./objs/tone.o
 .debug_pubnames
                0x0000000000014b49      0xcda ./objs/viewport.o
 .debug_pubnames
                0x0000000000015823      0xd27 ./objs/window_xp.o
 .debug_pubnames
                0x000000000001654a      0x8c2 ./objs/windowui_qt.o
 .debug_pubnames
                0x0000000000016e0c       0x75 ./objs/zobj.o
 .debug_pubnames
                0x0000000000016e81       0xb6 ./objs/ConvertUTF.o

.debug_info     0x0000000000000000   0x105f0f
 *(.debug_info .gnu.linkonce.wi.*)
 .debug_info    0x0000000000000000      0x731 ./objs/argss.o
 .debug_info    0x0000000000000731     0x33a7 ./objs/argss_audio.o
 .debug_info    0x0000000000003ad8     0x3a73 ./objs/argss_bitmap.o
 .debug_info    0x000000000000754b      0x893 ./objs/argss_color.o
 .debug_info    0x0000000000007dde      0x212 ./objs/argss_error.o
 .debug_info    0x0000000000007ff0      0xae6 ./objs/argss_font.o
 .debug_info    0x0000000000008ad6     0x35ce ./objs/argss_graphics.o
 .debug_info    0x000000000000c0a4      0x64c ./objs/argss_input.o
 .debug_info    0x000000000000c6f0      0x255 ./objs/argss_keys.o
 .debug_info    0x000000000000c945     0x3383 ./objs/argss_output.o
 .debug_info    0x000000000000fcc8     0x19b2 ./objs/argss_plane.o
 .debug_info    0x000000000001167a      0x8f4 ./objs/argss_rect.o
 .debug_info    0x0000000000011f6e      0xfcf ./objs/argss_rpg.o
 .debug_info    0x0000000000012f3d     0x1b6d ./objs/argss_rpg_cache.o
 .debug_info    0x0000000000014aaa     0x1dbb ./objs/argss_rpg_sprite.o
 .debug_info    0x0000000000016865      0x9c3 ./objs/argss_rpg_weather.o
 .debug_info    0x0000000000017228     0x447f ./objs/argss_ruby.o
 .debug_info    0x000000000001b6a7     0x217f ./objs/argss_sprite.o
 .debug_info    0x000000000001d826     0x18c0 ./objs/argss_table.o
 .debug_info    0x000000000001f0e6     0x17e1 ./objs/argss_tilemap_xp.o
 .debug_info    0x00000000000208c7      0x3ae ./objs/argss_tilemapautotiles_xp.o
 .debug_info    0x0000000000020c75      0x833 ./objs/argss_tone.o
 .debug_info    0x00000000000214a8     0x18ac ./objs/argss_viewport.o
 .debug_info    0x0000000000022d54     0x1e8c ./objs/argss_window_xp.o
 .debug_info    0x0000000000024be0     0x6650 ./objs/audio.o
 .debug_info    0x000000000002b230     0xb57f ./objs/bitmap.o
 .debug_info    0x00000000000367af     0x2ec2 ./objs/buffer.o
 .debug_info    0x0000000000039671      0x5b4 ./objs/color.o
 .debug_info    0x0000000000039c25     0x36b1 ./objs/console_qt.o
 .debug_info    0x000000000003d2d6     0x4fe9 ./objs/filefinder_qt.o
 .debug_info    0x00000000000422bf    0x120fc ./objs/graphics.o
 .debug_info    0x00000000000543bb      0x3ec ./objs/hslrgb.o
 .debug_info    0x00000000000547a7     0xf598 ./objs/input.o
 .debug_info    0x0000000000063d3f     0x5e35 ./objs/inputbuttons_qt.o
 .debug_info    0x0000000000069b74      0x623 ./objs/inputkeys.o
 .debug_info    0x000000000006a197     0xcc53 ./objs/main.o
 .debug_info    0x0000000000076dea     0xbdc9 ./objs/msgbox_qt.o
 .debug_info    0x0000000000082bb3     0x4a07 ./objs/output.o
 .debug_info    0x00000000000875ba     0x7fd9 ./objs/plane.o
 .debug_info    0x000000000008f593     0xdaea ./objs/player.o
 .debug_info    0x000000000009d07d      0x685 ./objs/rect.o
 .debug_info    0x000000000009d702     0x31de ./objs/socket.o
 .debug_info    0x00000000000a08e0     0x8663 ./objs/sprite.o
 .debug_info    0x00000000000a8f43     0xd251 ./objs/system.o
 .debug_info    0x00000000000b6194     0xabb4 ./objs/text.o
 .debug_info    0x00000000000c0d48    0x1b70a ./objs/tilemap_xp.o
 .debug_info    0x00000000000dc452       0xe1 ./objs/time_qt.o
 .debug_info    0x00000000000dc533      0x355 ./objs/tone.o
 .debug_info    0x00000000000dc888     0xa360 ./objs/viewport.o
 .debug_info    0x00000000000e6be8     0x8563 ./objs/window_xp.o
 .debug_info    0x00000000000ef14b    0x163c2 ./objs/windowui_qt.o
 .debug_info    0x000000000010550d      0x2b3 ./objs/zobj.o
 .debug_info    0x00000000001057c0      0x74f ./objs/ConvertUTF.o

.debug_abbrev   0x0000000000000000    0x10635
 *(.debug_abbrev)
 .debug_abbrev  0x0000000000000000      0x202 ./objs/argss.o
 .debug_abbrev  0x0000000000000202      0x570 ./objs/argss_audio.o
 .debug_abbrev  0x0000000000000772      0x5dd ./objs/argss_bitmap.o
 .debug_abbrev  0x0000000000000d4f      0x271 ./objs/argss_color.o
 .debug_abbrev  0x0000000000000fc0      0x11a ./objs/argss_error.o
 .debug_abbrev  0x00000000000010da      0x1a8 ./objs/argss_font.o
 .debug_abbrev  0x0000000000001282      0x59a ./objs/argss_graphics.o
 .debug_abbrev  0x000000000000181c      0x1a5 ./objs/argss_input.o
 .debug_abbrev  0x00000000000019c1      0x132 ./objs/argss_keys.o
 .debug_abbrev  0x0000000000001af3      0x5ee ./objs/argss_output.o
 .debug_abbrev  0x00000000000020e1      0x2fa ./objs/argss_plane.o
 .debug_abbrev  0x00000000000023db      0x2b5 ./objs/argss_rect.o
 .debug_abbrev  0x0000000000002690      0x25e ./objs/argss_rpg.o
 .debug_abbrev  0x00000000000028ee      0x375 ./objs/argss_rpg_cache.o
 .debug_abbrev  0x0000000000002c63      0x2e2 ./objs/argss_rpg_sprite.o
 .debug_abbrev  0x0000000000002f45      0x26d ./objs/argss_rpg_weather.o
 .debug_abbrev  0x00000000000031b2      0x856 ./objs/argss_ruby.o
 .debug_abbrev  0x0000000000003a08      0x38e ./objs/argss_sprite.o
 .debug_abbrev  0x0000000000003d96      0x360 ./objs/argss_table.o
 .debug_abbrev  0x00000000000040f6      0x330 ./objs/argss_tilemap_xp.o
 .debug_abbrev  0x0000000000004426      0x1a5 ./objs/argss_tilemapautotiles_xp.o
 .debug_abbrev  0x00000000000045cb      0x271 ./objs/argss_tone.o
 .debug_abbrev  0x000000000000483c      0x39d ./objs/argss_viewport.o
 .debug_abbrev  0x0000000000004bd9      0x396 ./objs/argss_window_xp.o
 .debug_abbrev  0x0000000000004f6f      0x830 ./objs/audio.o
 .debug_abbrev  0x000000000000579f      0x986 ./objs/bitmap.o
 .debug_abbrev  0x0000000000006125      0x4e9 ./objs/buffer.o
 .debug_abbrev  0x000000000000660e      0x272 ./objs/color.o
 .debug_abbrev  0x0000000000006880      0x56c ./objs/console_qt.o
 .debug_abbrev  0x0000000000006dec      0x79d ./objs/filefinder_qt.o
 .debug_abbrev  0x0000000000007589      0xacc ./objs/graphics.o
 .debug_abbrev  0x0000000000008055      0x191 ./objs/hslrgb.o
 .debug_abbrev  0x00000000000081e6      0x906 ./objs/input.o
 .debug_abbrev  0x0000000000008aec      0x685 ./objs/inputbuttons_qt.o
 .debug_abbrev  0x0000000000009171      0x1ad ./objs/inputkeys.o
 .debug_abbrev  0x000000000000931e      0x7c2 ./objs/main.o
 .debug_abbrev  0x0000000000009ae0      0x69d ./objs/msgbox_qt.o
 .debug_abbrev  0x000000000000a17d      0x7c5 ./objs/output.o
 .debug_abbrev  0x000000000000a942      0x887 ./objs/plane.o
 .debug_abbrev  0x000000000000b1c9      0x726 ./objs/player.o
 .debug_abbrev  0x000000000000b8ef      0x297 ./objs/rect.o
 .debug_abbrev  0x000000000000bb86      0x571 ./objs/socket.o
 .debug_abbrev  0x000000000000c0f7      0x8a7 ./objs/sprite.o
 .debug_abbrev  0x000000000000c99e      0x90f ./objs/system.o
 .debug_abbrev  0x000000000000d2ad      0x903 ./objs/text.o
 .debug_abbrev  0x000000000000dbb0      0x9e9 ./objs/tilemap_xp.o
 .debug_abbrev  0x000000000000e599       0x98 ./objs/time_qt.o
 .debug_abbrev  0x000000000000e631      0x1b7 ./objs/tone.o
 .debug_abbrev  0x000000000000e7e8      0x8d9 ./objs/viewport.o
 .debug_abbrev  0x000000000000f0c1      0x885 ./objs/window_xp.o
 .debug_abbrev  0x000000000000f946      0xa09 ./objs/windowui_qt.o
 .debug_abbrev  0x000000000001034f      0x16e ./objs/zobj.o
 .debug_abbrev  0x00000000000104bd      0x178 ./objs/ConvertUTF.o

.debug_line     0x0000000000000000    0x31c94
 *(.debug_line)
 .debug_line    0x0000000000000000      0x9eb ./objs/argss.o
 .debug_line    0x00000000000009eb      0xd83 ./objs/argss_audio.o
 .debug_line    0x000000000000176e      0xeaf ./objs/argss_bitmap.o
 .debug_line    0x000000000000261d      0x99a ./objs/argss_color.o
 .debug_line    0x0000000000002fb7      0x7fd ./objs/argss_error.o
 .debug_line    0x00000000000037b4      0x961 ./objs/argss_font.o
 .debug_line    0x0000000000004115      0xc40 ./objs/argss_graphics.o
 .debug_line    0x0000000000004d55      0x8c0 ./objs/argss_input.o
 .debug_line    0x0000000000005615      0x921 ./objs/argss_keys.o
 .debug_line    0x0000000000005f36      0xb24 ./objs/argss_output.o
 .debug_line    0x0000000000006a5a      0xccc ./objs/argss_plane.o
 .debug_line    0x0000000000007726      0x975 ./objs/argss_rect.o
 .debug_line    0x000000000000809b     0x10b5 ./objs/argss_rpg.o
 .debug_line    0x0000000000009150      0xd3f ./objs/argss_rpg_cache.o
 .debug_line    0x0000000000009e8f     0x14e3 ./objs/argss_rpg_sprite.o
 .debug_line    0x000000000000b372      0xb5e ./objs/argss_rpg_weather.o
 .debug_line    0x000000000000bed0     0x149b ./objs/argss_ruby.o
 .debug_line    0x000000000000d36b      0xe24 ./objs/argss_sprite.o
 .debug_line    0x000000000000e18f      0xc80 ./objs/argss_table.o
 .debug_line    0x000000000000ee0f      0xc92 ./objs/argss_tilemap_xp.o
 .debug_line    0x000000000000faa1      0x87f ./objs/argss_tilemapautotiles_xp.o
 .debug_line    0x0000000000010320      0x97f ./objs/argss_tone.o
 .debug_line    0x0000000000010c9f      0xc9e ./objs/argss_viewport.o
 .debug_line    0x000000000001193d      0xde6 ./objs/argss_window_xp.o
 .debug_line    0x0000000000012723     0x1147 ./objs/audio.o
 .debug_line    0x000000000001386a     0x1b38 ./objs/bitmap.o
 .debug_line    0x00000000000153a2      0x7d4 ./objs/buffer.o
 .debug_line    0x0000000000015b76      0x876 ./objs/color.o
 .debug_line    0x00000000000163ec      0x95f ./objs/console_qt.o
 .debug_line    0x0000000000016d4b      0xd94 ./objs/filefinder_qt.o
 .debug_line    0x0000000000017adf     0x19ca ./objs/graphics.o
 .debug_line    0x00000000000194a9      0x280 ./objs/hslrgb.o
 .debug_line    0x0000000000019729     0x2741 ./objs/input.o
 .debug_line    0x000000000001be6a      0xa91 ./objs/inputbuttons_qt.o
 .debug_line    0x000000000001c8fb      0xb26 ./objs/inputkeys.o
 .debug_line    0x000000000001d421     0x130b ./objs/main.o
 .debug_line    0x000000000001e72c      0xf77 ./objs/msgbox_qt.o
 .debug_line    0x000000000001f6a3     0x116e ./objs/output.o
 .debug_line    0x0000000000020811     0x1676 ./objs/plane.o
 .debug_line    0x0000000000021e87     0x1249 ./objs/player.o
 .debug_line    0x00000000000230d0      0x8c1 ./objs/rect.o
 .debug_line    0x0000000000023991      0xc16 ./objs/socket.o
 .debug_line    0x00000000000245a7     0x17e3 ./objs/sprite.o
 .debug_line    0x0000000000025d8a     0x180b ./objs/system.o
 .debug_line    0x0000000000027595     0x1372 ./objs/text.o
 .debug_line    0x0000000000028907     0x308f ./objs/tilemap_xp.o
 .debug_line    0x000000000002b996      0x4a1 ./objs/time_qt.o
 .debug_line    0x000000000002be37      0x80f ./objs/tone.o
 .debug_line    0x000000000002c646     0x18ac ./objs/viewport.o
 .debug_line    0x000000000002def2     0x1b4e ./objs/window_xp.o
 .debug_line    0x000000000002fa40     0x1db5 ./objs/windowui_qt.o
 .debug_line    0x00000000000317f5      0x171 ./objs/zobj.o
 .debug_line    0x0000000000031966      0x32e ./objs/ConvertUTF.o

.debug_frame    0x0000000000000000      0x178
 *(.debug_frame)
 .debug_frame   0x0000000000000000      0x178 ./objs/ConvertUTF.o

.debug_str      0x0000000000000000    0x60282
 *(.debug_str)
 .debug_str     0x0000000000000000      0x33a ./objs/argss.o
                                        0x3b3 (size before relaxing)
 .debug_str     0x000000000000033a     0x2152 ./objs/argss_audio.o
                                       0x261b (size before relaxing)
 .debug_str     0x000000000000248c      0x629 ./objs/argss_bitmap.o
                                       0x2754 (size before relaxing)
 .debug_str     0x0000000000002ab5      0x282 ./objs/argss_color.o
                                        0x536 (size before relaxing)
 .debug_str     0x0000000000002d37       0x44 ./objs/argss_error.o
                                        0x2b7 (size before relaxing)
 .debug_str     0x0000000000002d7b      0x472 ./objs/argss_font.o
                                        0x9ae (size before relaxing)
 .debug_str     0x00000000000031ed      0x404 ./objs/argss_graphics.o
                                       0x26ee (size before relaxing)
 .debug_str     0x00000000000035f1      0x205 ./objs/argss_input.o
                                        0x678 (size before relaxing)
 .debug_str     0x00000000000037f6       0x4a ./objs/argss_keys.o
                                        0x336 (size before relaxing)
 .debug_str     0x0000000000003840      0x23d ./objs/argss_output.o
                                       0x2487 (size before relaxing)
 .debug_str     0x0000000000003a7d      0x43b ./objs/argss_plane.o
                                        0xdf7 (size before relaxing)
 .debug_str     0x0000000000003eb8      0x1e3 ./objs/argss_rect.o
                                        0x575 (size before relaxing)
 .debug_str     0x000000000000409b      0xd7e ./objs/argss_rpg.o
                                       0x10ba (size before relaxing)
 .debug_str     0x0000000000004e19      0x343 ./objs/argss_rpg_cache.o
                                        0xcbd (size before relaxing)
 .debug_str     0x000000000000515c      0x65d ./objs/argss_rpg_sprite.o
                                        0xb01 (size before relaxing)
 .debug_str     0x00000000000057b9      0x1b3 ./objs/argss_rpg_weather.o
                                        0x5ad (size before relaxing)
 .debug_str     0x000000000000596c      0xb3c ./objs/argss_ruby.o
                                       0x2e48 (size before relaxing)
 .debug_str     0x00000000000064a8      0x638 ./objs/argss_sprite.o
                                       0x11e6 (size before relaxing)
 .debug_str     0x0000000000006ae0      0x1d9 ./objs/argss_table.o
                                        0xb0b (size before relaxing)
 .debug_str     0x0000000000006cb9      0x375 ./objs/argss_tilemap_xp.o
                                        0xd70 (size before relaxing)
 .debug_str     0x000000000000702e      0x11b ./objs/argss_tilemapautotiles_xp.o
                                        0x458 (size before relaxing)
 .debug_str     0x0000000000007149      0x1de ./objs/argss_tone.o
                                        0x4f3 (size before relaxing)
 .debug_str     0x0000000000007327      0x298 ./objs/argss_viewport.o
                                        0xd44 (size before relaxing)
 .debug_str     0x00000000000075bf      0x613 ./objs/argss_window_xp.o
                                       0x108e (size before relaxing)
 .debug_str     0x0000000000007bd2     0x3ac3 ./objs/audio.o
                                       0x5f4e (size before relaxing)
 .debug_str     0x000000000000b695     0x5114 ./objs/bitmap.o
                                       0x7d08 (size before relaxing)
 .debug_str     0x00000000000107a9      0x14e ./objs/buffer.o
                                       0x1f81 (size before relaxing)
 .debug_str     0x00000000000108f7       0x2d ./objs/color.o
                                        0x365 (size before relaxing)
 .debug_str     0x0000000000010924      0x2cf ./objs/console_qt.o
                                       0x266f (size before relaxing)
 .debug_str     0x0000000000010bf3      0x73e ./objs/filefinder_qt.o
                                       0x307e (size before relaxing)
 .debug_str     0x0000000000011331     0xdd27 ./objs/graphics.o
                                      0x10daf (size before relaxing)
 .debug_str     0x000000000001f058       0x9a ./objs/hslrgb.o
                                        0x20e (size before relaxing)
 .debug_str     0x000000000001f0f2     0x908e ./objs/input.o
                                       0xaa6c (size before relaxing)
 .debug_str     0x0000000000028180       0x6a ./objs/inputbuttons_qt.o
                                       0x5f1c (size before relaxing)
 .debug_str     0x00000000000281ea       0x50 ./objs/inputkeys.o
                                        0x54b (size before relaxing)
 .debug_str     0x000000000002823a      0xd63 ./objs/main.o
                                       0xc48f (size before relaxing)
 .debug_str     0x0000000000028f9d      0x4bb ./objs/msgbox_qt.o
                                       0xb7ec (size before relaxing)
 .debug_str     0x0000000000029458      0x28c ./objs/output.o
                                       0x2f1c (size before relaxing)
 .debug_str     0x00000000000296e4      0x463 ./objs/plane.o
                                       0x75b7 (size before relaxing)
 .debug_str     0x0000000000029b47      0xce3 ./objs/player.o
                                       0xd2dd (size before relaxing)
 .debug_str     0x000000000002a82a       0x22 ./objs/rect.o
                                        0x40c (size before relaxing)
 .debug_str     0x000000000002a84c      0x1ad ./objs/socket.o
                                       0x2278 (size before relaxing)
 .debug_str     0x000000000002a9f9      0x5af ./objs/sprite.o
                                       0x7893 (size before relaxing)
 .debug_str     0x000000000002afa8    0x11c7f ./objs/system.o
                                      0x14c00 (size before relaxing)
 .debug_str     0x000000000003cc27     0x6296 ./objs/text.o
                                       0x9f73 (size before relaxing)
 .debug_str     0x0000000000042ebd    0x17048 ./objs/tilemap_xp.o
                                      0x1ec5b (size before relaxing)
 .debug_str     0x0000000000059f05       0x4c ./objs/time_qt.o
                                        0x114 (size before relaxing)
 .debug_str     0x0000000000059f51       0x13 ./objs/tone.o
                                        0x29d (size before relaxing)
 .debug_str     0x0000000000059f64      0x325 ./objs/viewport.o
                                       0x8897 (size before relaxing)
 .debug_str     0x000000000005a289      0x5c3 ./objs/window_xp.o
                                       0x780b (size before relaxing)
 .debug_str     0x000000000005a84c     0x5825 ./objs/windowui_qt.o
                                      0x13a28 (size before relaxing)
 .debug_str     0x0000000000060071       0x1d ./objs/zobj.o
                                        0x161 (size before relaxing)
 .debug_str     0x000000000006008e      0x1f4 ./objs/ConvertUTF.o
                                        0x2d5 (size before relaxing)

.debug_loc      0x0000000000000000    0x29433
 *(.debug_loc)
 .debug_loc     0x0000000000000000       0x82 ./objs/argss.o
 .debug_loc     0x0000000000000082      0x588 ./objs/argss_audio.o
 .debug_loc     0x000000000000060a      0x8c9 ./objs/argss_bitmap.o
 .debug_loc     0x0000000000000ed3      0x513 ./objs/argss_color.o
 .debug_loc     0x00000000000013e6       0x44 ./objs/argss_error.o
 .debug_loc     0x000000000000142a      0x758 ./objs/argss_font.o
 .debug_loc     0x0000000000001b82      0x669 ./objs/argss_graphics.o
 .debug_loc     0x00000000000021eb      0x32c ./objs/argss_input.o
 .debug_loc     0x0000000000002517       0x44 ./objs/argss_keys.o
 .debug_loc     0x000000000000255b      0x309 ./objs/argss_output.o
 .debug_loc     0x0000000000002864      0x848 ./objs/argss_plane.o
 .debug_loc     0x00000000000030ac      0x52b ./objs/argss_rect.o
 .debug_loc     0x00000000000035d7      0x963 ./objs/argss_rpg.o
 .debug_loc     0x0000000000003f3a      0x712 ./objs/argss_rpg_cache.o
 .debug_loc     0x000000000000464c     0x1226 ./objs/argss_rpg_sprite.o
 .debug_loc     0x0000000000005872      0x6e1 ./objs/argss_rpg_weather.o
 .debug_loc     0x0000000000005f53      0xa2a ./objs/argss_ruby.o
 .debug_loc     0x000000000000697d      0xe67 ./objs/argss_sprite.o
 .debug_loc     0x00000000000077e4      0xb09 ./objs/argss_table.o
 .debug_loc     0x00000000000082ed      0x68c ./objs/argss_tilemap_xp.o
 .debug_loc     0x0000000000008979      0x1a4 ./objs/argss_tilemapautotiles_xp.o
 .debug_loc     0x0000000000008b1d      0x4cf ./objs/argss_tone.o
 .debug_loc     0x0000000000008fec      0x624 ./objs/argss_viewport.o
 .debug_loc     0x0000000000009610      0xd4e ./objs/argss_window_xp.o
 .debug_loc     0x000000000000a35e      0xafb ./objs/audio.o
 .debug_loc     0x000000000000ae59     0x2923 ./objs/bitmap.o
 .debug_loc     0x000000000000d77c      0x17a ./objs/buffer.o
 .debug_loc     0x000000000000d8f6      0x220 ./objs/color.o
 .debug_loc     0x000000000000db16      0x1a0 ./objs/console_qt.o
 .debug_loc     0x000000000000dcb6     0x28ca ./objs/filefinder_qt.o
 .debug_loc     0x0000000000010580     0x154d ./objs/graphics.o
 .debug_loc     0x0000000000011acd      0x1f6 ./objs/hslrgb.o
 .debug_loc     0x0000000000011cc3     0x4243 ./objs/input.o
 .debug_loc     0x0000000000015f06      0xcb5 ./objs/inputbuttons_qt.o
 .debug_loc     0x0000000000016bbb       0xba ./objs/inputkeys.o
 .debug_loc     0x0000000000016c75      0x204 ./objs/main.o
 .debug_loc     0x0000000000016e79      0x1f6 ./objs/msgbox_qt.o
 .debug_loc     0x000000000001706f      0x590 ./objs/output.o
 .debug_loc     0x00000000000175ff      0xfb8 ./objs/plane.o
 .debug_loc     0x00000000000185b7      0x348 ./objs/player.o
 .debug_loc     0x00000000000188ff      0x2b0 ./objs/rect.o
 .debug_loc     0x0000000000018baf      0x2ee ./objs/socket.o
 .debug_loc     0x0000000000018e9d     0x13d5 ./objs/sprite.o
 .debug_loc     0x000000000001a272     0x2564 ./objs/system.o
 .debug_loc     0x000000000001c7d6     0x16c8 ./objs/text.o
 .debug_loc     0x000000000001de9e     0x5c1c ./objs/tilemap_xp.o
 .debug_loc     0x0000000000023aba       0x70 ./objs/time_qt.o
 .debug_loc     0x0000000000023b2a       0xf8 ./objs/tone.o
 .debug_loc     0x0000000000023c22     0x147a ./objs/viewport.o
 .debug_loc     0x000000000002509c     0x1417 ./objs/window_xp.o
 .debug_loc     0x00000000000264b3     0x1e7f ./objs/windowui_qt.o
 .debug_loc     0x0000000000028332      0x150 ./objs/zobj.o
 .debug_loc     0x0000000000028482      0xfb1 ./objs/ConvertUTF.o

.debug_macinfo  0x0000000000000000   0x69847c
 *(.debug_macinfo)
 .debug_macinfo
                0x0000000000000000     0xfb9b ./objs/argss.o
 .debug_macinfo
                0x000000000000fb9b    0x18a4b ./objs/argss_audio.o
 .debug_macinfo
                0x00000000000285e6    0x35f7f ./objs/argss_bitmap.o
 .debug_macinfo
                0x000000000005e565     0xf1fc ./objs/argss_color.o
 .debug_macinfo
                0x000000000006d761     0xf1e7 ./objs/argss_error.o
 .debug_macinfo
                0x000000000007c948     0xf1fd ./objs/argss_font.o
 .debug_macinfo
                0x000000000008bb45    0x15b4d ./objs/argss_graphics.o
 .debug_macinfo
                0x00000000000a1692     0xf20e ./objs/argss_input.o
 .debug_macinfo
                0x00000000000b08a0     0xf20d ./objs/argss_keys.o
 .debug_macinfo
                0x00000000000bfaad    0x15a4e ./objs/argss_output.o
 .debug_macinfo
                0x00000000000d54fb    0x35fd9 ./objs/argss_plane.o
 .debug_macinfo
                0x000000000010b4d4     0xf1e6 ./objs/argss_rect.o
 .debug_macinfo
                0x000000000011a6ba     0xf213 ./objs/argss_rpg.o
 .debug_macinfo
                0x00000000001298cd    0x15a83 ./objs/argss_rpg_cache.o
 .debug_macinfo
                0x000000000013f350     0xf2c0 ./objs/argss_rpg_sprite.o
 .debug_macinfo
                0x000000000014e610     0xf25f ./objs/argss_rpg_weather.o
 .debug_macinfo
                0x000000000015d86f    0x3c913 ./objs/argss_ruby.o
 .debug_macinfo
                0x000000000019a182    0x35ff2 ./objs/argss_sprite.o
 .debug_macinfo
                0x00000000001d0174    0x15a4d ./objs/argss_table.o
 .debug_macinfo
                0x00000000001e5bc1    0x35ff2 ./objs/argss_tilemap_xp.o
 .debug_macinfo
                0x000000000021bbb3     0xf20d ./objs/argss_tilemapautotiles_xp.o
 .debug_macinfo
                0x000000000022adc0     0xf1f6 ./objs/argss_tone.o
 .debug_macinfo
                0x0000000000239fb6    0x36012 ./objs/argss_viewport.o
 .debug_macinfo
                0x000000000026ffc8    0x35fe1 ./objs/argss_window_xp.o
 .debug_macinfo
                0x00000000002a5fa9    0x18a68 ./objs/audio.o
 .debug_macinfo
                0x00000000002bea11    0x39670 ./objs/bitmap.o
 .debug_macinfo
                0x00000000002f8081     0xcd24 ./objs/buffer.o
 .debug_macinfo
                0x0000000000304da5     0xf1fb ./objs/color.o
 .debug_macinfo
                0x0000000000313fa0     0xe1f4 ./objs/console_qt.o
 .debug_macinfo
                0x0000000000322194     0xe50c ./objs/filefinder_qt.o
 .debug_macinfo
                0x00000000003306a0    0x3fe1d ./objs/graphics.o
 .debug_macinfo
                0x00000000003704bd     0x32a7 ./objs/hslrgb.o
 .debug_macinfo
                0x0000000000373764    0x3c637 ./objs/input.o
 .debug_macinfo
                0x00000000003afd9b     0x5ae6 ./objs/inputbuttons_qt.o
 .debug_macinfo
                0x00000000003b5881     0xf1e6 ./objs/inputkeys.o
 .debug_macinfo
                0x00000000003c4a67    0x39f43 ./objs/main.o
 .debug_macinfo
                0x00000000003fe9aa    0x34d23 ./objs/msgbox_qt.o
 .debug_macinfo
                0x00000000004336cd    0x362f4 ./objs/output.o
 .debug_macinfo
                0x00000000004699c1    0x3d819 ./objs/plane.o
 .debug_macinfo
                0x00000000004a71da    0x38e6a ./objs/player.o
 .debug_macinfo
                0x00000000004e0044     0xf1f6 ./objs/rect.o
 .debug_macinfo
                0x00000000004ef23a    0x18d58 ./objs/socket.o
 .debug_macinfo
                0x0000000000507f92    0x3c6ea ./objs/sprite.o
 .debug_macinfo
                0x000000000054467c     0xf634 ./objs/system.o
 .debug_macinfo
                0x0000000000553cb0    0x39446 ./objs/text.o
 .debug_macinfo
                0x000000000058d0f6    0x3db6a ./objs/tilemap_xp.o
 .debug_macinfo
                0x00000000005cac60     0x9542 ./objs/time_qt.o
 .debug_macinfo
                0x00000000005d41a2     0xf1e0 ./objs/tone.o
 .debug_macinfo
                0x00000000005e3382    0x3c6b6 ./objs/viewport.o
 .debug_macinfo
                0x000000000061fa38    0x3da16 ./objs/window_xp.o
 .debug_macinfo
                0x000000000065d44e    0x34c7a ./objs/windowui_qt.o
 .debug_macinfo
                0x00000000006920c8     0x3173 ./objs/zobj.o
 .debug_macinfo
                0x000000000069523b     0x3241 ./objs/ConvertUTF.o

.debug_weaknames
 *(.debug_weaknames)

.debug_funcnames
 *(.debug_funcnames)

.debug_typenames
 *(.debug_typenames)

.debug_varnames
 *(.debug_varnames)

.debug_pubtypes
                0x0000000000000000     0x6f6b
 *(.debug_pubtypes)
 .debug_pubtypes
                0x0000000000000000       0x56 ./objs/argss.o
 .debug_pubtypes
                0x0000000000000056      0x173 ./objs/argss_audio.o
 .debug_pubtypes
                0x00000000000001c9      0x18a ./objs/argss_bitmap.o
 .debug_pubtypes
                0x0000000000000353       0x40 ./objs/argss_color.o
 .debug_pubtypes
                0x0000000000000393       0x39 ./objs/argss_error.o
 .debug_pubtypes
                0x00000000000003cc       0x65 ./objs/argss_font.o
 .debug_pubtypes
                0x0000000000000431      0x173 ./objs/argss_graphics.o
 .debug_pubtypes
                0x00000000000005a4       0x65 ./objs/argss_input.o
 .debug_pubtypes
                0x0000000000000609       0x51 ./objs/argss_keys.o
 .debug_pubtypes
                0x000000000000065a      0x18a ./objs/argss_output.o
 .debug_pubtypes
                0x00000000000007e4       0xf6 ./objs/argss_plane.o
 .debug_pubtypes
                0x00000000000008da       0x58 ./objs/argss_rect.o
 .debug_pubtypes
                0x0000000000000932       0x51 ./objs/argss_rpg.o
 .debug_pubtypes
                0x0000000000000983      0x11f ./objs/argss_rpg_cache.o
 .debug_pubtypes
                0x0000000000000aa2       0x7a ./objs/argss_rpg_sprite.o
 .debug_pubtypes
                0x0000000000000b1c       0x67 ./objs/argss_rpg_weather.o
 .debug_pubtypes
                0x0000000000000b83      0x2d2 ./objs/argss_ruby.o
 .debug_pubtypes
                0x0000000000000e55      0x118 ./objs/argss_sprite.o
 .debug_pubtypes
                0x0000000000000f6d       0xfd ./objs/argss_table.o
 .debug_pubtypes
                0x000000000000106a       0xf6 ./objs/argss_tilemap_xp.o
 .debug_pubtypes
                0x0000000000001160       0x51 ./objs/argss_tilemapautotiles_xp.o
 .debug_pubtypes
                0x00000000000011b1       0x40 ./objs/argss_tone.o
 .debug_pubtypes
                0x00000000000011f1      0x118 ./objs/argss_viewport.o
 .debug_pubtypes
                0x0000000000001309       0xf6 ./objs/argss_window_xp.o
 .debug_pubtypes
                0x00000000000013ff      0x2b2 ./objs/audio.o
 .debug_pubtypes
                0x00000000000016b1      0x41b ./objs/bitmap.o
 .debug_pubtypes
                0x0000000000001acc       0xf6 ./objs/buffer.o
 .debug_pubtypes
                0x0000000000001bc2       0x71 ./objs/color.o
 .debug_pubtypes
                0x0000000000001c33      0x1d1 ./objs/console_qt.o
 .debug_pubtypes
                0x0000000000001e04      0x263 ./objs/filefinder_qt.o
 .debug_pubtypes
                0x0000000000002067      0x64d ./objs/graphics.o
 .debug_pubtypes
                0x00000000000026b4       0x41 ./objs/hslrgb.o
 .debug_pubtypes
                0x00000000000026f5      0x6b9 ./objs/input.o
 .debug_pubtypes
                0x0000000000002dae      0x26f ./objs/inputbuttons_qt.o
 .debug_pubtypes
                0x000000000000301d       0x51 ./objs/inputkeys.o
 .debug_pubtypes
                0x000000000000306e      0x47d ./objs/main.o
 .debug_pubtypes
                0x00000000000034eb      0x38c ./objs/msgbox_qt.o
 .debug_pubtypes
                0x0000000000003877      0x2b6 ./objs/output.o
 .debug_pubtypes
                0x0000000000003b2d      0x3a9 ./objs/plane.o
 .debug_pubtypes
                0x0000000000003ed6      0x446 ./objs/player.o
 .debug_pubtypes
                0x000000000000431c       0x5a ./objs/rect.o
 .debug_pubtypes
                0x0000000000004376      0x1e6 ./objs/socket.o
 .debug_pubtypes
                0x000000000000455c      0x3b6 ./objs/sprite.o
 .debug_pubtypes
                0x0000000000004912      0x444 ./objs/system.o
 .debug_pubtypes
                0x0000000000004d56      0x874 ./objs/text.o
 .debug_pubtypes
                0x00000000000055ca      0x978 ./objs/tilemap_xp.o
 .debug_pubtypes
                0x0000000000005f42       0x12 ./objs/time_qt.o
 .debug_pubtypes
                0x0000000000005f54       0x42 ./objs/tone.o
 .debug_pubtypes
                0x0000000000005f96      0x489 ./objs/viewport.o
 .debug_pubtypes
                0x000000000000641f      0x3b6 ./objs/window_xp.o
 .debug_pubtypes
                0x00000000000067d5      0x717 ./objs/windowui_qt.o
 .debug_pubtypes
                0x0000000000006eec       0x1b ./objs/zobj.o
 .debug_pubtypes
                0x0000000000006f07       0x64 ./objs/ConvertUTF.o

.debug_ranges   0x0000000000000000     0x9038
 *(.debug_ranges)
 .debug_ranges  0x0000000000000000       0x18 ./objs/argss.o
 .debug_ranges  0x0000000000000018       0x60 ./objs/argss_audio.o
 .debug_ranges  0x0000000000000078       0x60 ./objs/argss_bitmap.o
 .debug_ranges  0x00000000000000d8       0xc8 ./objs/argss_color.o
 .debug_ranges  0x00000000000001a0       0x18 ./objs/argss_graphics.o
 .debug_ranges  0x00000000000001b8       0x40 ./objs/argss_output.o
 .debug_ranges  0x00000000000001f8       0x98 ./objs/argss_rect.o
 .debug_ranges  0x0000000000000290       0xb0 ./objs/argss_rpg.o
 .debug_ranges  0x0000000000000340      0x248 ./objs/argss_rpg_cache.o
 .debug_ranges  0x0000000000000588      0x9a0 ./objs/argss_rpg_sprite.o
 .debug_ranges  0x0000000000000f28      0x1e8 ./objs/argss_rpg_weather.o
 .debug_ranges  0x0000000000001110      0x190 ./objs/argss_ruby.o
 .debug_ranges  0x00000000000012a0      0x128 ./objs/argss_table.o
 .debug_ranges  0x00000000000013c8       0xb0 ./objs/argss_tone.o
 .debug_ranges  0x0000000000001478       0x60 ./objs/argss_window_xp.o
 .debug_ranges  0x00000000000014d8      0x248 ./objs/audio.o
 .debug_ranges  0x0000000000001720      0xad8 ./objs/bitmap.o
 .debug_ranges  0x00000000000021f8       0x68 ./objs/buffer.o
 .debug_ranges  0x0000000000002260       0x68 ./objs/color.o
 .debug_ranges  0x00000000000022c8       0x30 ./objs/console_qt.o
 .debug_ranges  0x00000000000022f8      0x2f8 ./objs/filefinder_qt.o
 .debug_ranges  0x00000000000025f0      0x460 ./objs/graphics.o
 .debug_ranges  0x0000000000002a50       0x78 ./objs/hslrgb.o
 .debug_ranges  0x0000000000002ac8     0x1af0 ./objs/input.o
 .debug_ranges  0x00000000000045b8      0x570 ./objs/inputbuttons_qt.o
 .debug_ranges  0x0000000000004b28       0x18 ./objs/inputkeys.o
 .debug_ranges  0x0000000000004b40       0x78 ./objs/main.o
 .debug_ranges  0x0000000000004bb8       0x28 ./objs/msgbox_qt.o
 .debug_ranges  0x0000000000004be0      0x108 ./objs/output.o
 .debug_ranges  0x0000000000004ce8      0x190 ./objs/plane.o
 .debug_ranges  0x0000000000004e78       0xa0 ./objs/player.o
 .debug_ranges  0x0000000000004f18       0x18 ./objs/rect.o
 .debug_ranges  0x0000000000004f30       0xb0 ./objs/socket.o
 .debug_ranges  0x0000000000004fe0      0x190 ./objs/sprite.o
 .debug_ranges  0x0000000000005170      0x8e8 ./objs/system.o
 .debug_ranges  0x0000000000005a58      0x700 ./objs/text.o
 .debug_ranges  0x0000000000006158     0x1f10 ./objs/tilemap_xp.o
 .debug_ranges  0x0000000000008068      0x3e8 ./objs/viewport.o
 .debug_ranges  0x0000000000008450      0x220 ./objs/window_xp.o
 .debug_ranges  0x0000000000008670      0x930 ./objs/windowui_qt.o
 .debug_ranges  0x0000000000008fa0       0x98 ./objs/ConvertUTF.o

.gnu.attributes
 *(.gnu.attributes)

/DISCARD/
 *(.note.GNU-stack)
 *(.gnu_debuglink)
 *(.gnu.lto_*)
OUTPUT(ARGSS elf32-i386)
